	.file	"vecadd.cpp"
	.text
.Ltext0:
	.p2align 4
	.type	main._omp_fn.1, @function
main._omp_fn.1:
.LVL0:
.LFB7773:
	.file 1 "vecadd.cpp"
	.loc 1 55 17 view -0
	.cfi_startproc
	.cfi_personality 0x9b,DW.ref.__gxx_personality_v0
	.loc 1 55 17 is_stmt 0 view .LVU1
	endbr64
.LVL1:
	.loc 1 55 17 view .LVU2
	pushq	%rbp
	.cfi_def_cfa_offset 16
	.cfi_offset 6, -16
.LVL2:
	.loc 1 55 17 view .LVU3
	movq	%rsp, %rbp
	.cfi_def_cfa_register 6
	pushq	%r13
	pushq	%r12
	pushq	%rbx
	.cfi_offset 13, -24
	.cfi_offset 12, -32
	.cfi_offset 3, -40
	movq	(%rdi), %rbx
.LVL3:
	.loc 1 55 17 view .LVU4
	andq	$-64, %rsp
	cmpq	$7, %rbx
	je	.L8
	movq	%rdi, %r13
	call	omp_get_num_threads@PLT
.LVL4:
	.loc 1 55 17 view .LVU5
	movl	%eax, %r12d
	call	omp_get_thread_num@PLT
.LVL5:
	movslq	%eax, %rcx
	movq	%rbx, %rax
	shrq	$3, %rax
	movslq	%r12d, %rsi
	xorl	%edx, %edx
	divq	%rsi
	cmpq	%rdx, %rcx
	jb	.L3
.L6:
	imulq	%rax, %rcx
	addq	%rcx, %rdx
	addq	%rdx, %rax
	cmpq	%rax, %rdx
	jnb	.L8
	.loc 1 55 17 view .LVU6
	movq	8(%r13), %rcx
	salq	$3, %rdx
.LVL6:
	.loc 1 55 17 view .LVU7
	salq	$3, %rax
	.p2align 4,,10
	.p2align 3
.L5:
	.loc 1 56 37 is_stmt 1 discriminator 7 view .LVU8
.LBB351:
.LBB352:
	.loc 1 57 13 discriminator 7 view .LVU9
.LVL7:
.LBB353:
.LBI353:
	.file 2 "/usr/lib/gcc/x86_64-linux-gnu/9/include/avx512fintrin.h"
	.loc 2 6196 1 discriminator 7 view .LVU10
.LBB354:
	.loc 2 6198 3 discriminator 7 view .LVU11
	.loc 2 6198 24 is_stmt 0 discriminator 7 view .LVU12
	vmovupd	(%rcx,%rdx,8), %zmm0
.LVL8:
	.loc 2 6198 24 discriminator 7 view .LVU13
.LBE354:
.LBE353:
	.loc 1 58 13 is_stmt 1 discriminator 7 view .LVU14
.LBB355:
.LBI355:
	.loc 2 13008 1 discriminator 7 view .LVU15
.LBB356:
	.loc 2 13010 3 discriminator 7 view .LVU16
	.loc 2 13010 10 is_stmt 0 discriminator 7 view .LVU17
	vfmadd132pd	%zmm0, %zmm0, %zmm0
.LVL9:
	.loc 2 13010 10 discriminator 7 view .LVU18
.LBE356:
.LBE355:
	.loc 1 59 13 is_stmt 1 discriminator 7 view .LVU19
.LBB357:
.LBI357:
	.loc 2 6222 1 discriminator 7 view .LVU20
.LBB358:
	.loc 2 6224 3 discriminator 7 view .LVU21
	.loc 2 6224 21 is_stmt 0 discriminator 7 view .LVU22
	vmovupd	%zmm0, (%rcx,%rdx,8)
.LVL10:
	.loc 2 6224 21 discriminator 7 view .LVU23
	addq	$8, %rdx
.LVL11:
	.loc 2 6224 21 discriminator 7 view .LVU24
	cmpq	%rdx, %rax
	ja	.L5
	vzeroupper
.LVL12:
.L8:
	.loc 2 6224 21 discriminator 7 view .LVU25
.LBE358:
.LBE357:
.LBE352:
.LBE351:
	.loc 1 55 17 view .LVU26
	leaq	-24(%rbp), %rsp
	popq	%rbx
.LVL13:
	.loc 1 55 17 view .LVU27
	popq	%r12
	popq	%r13
	popq	%rbp
	.cfi_remember_state
	.cfi_def_cfa 7, 8
	ret
.LVL14:
	.p2align 4,,10
	.p2align 3
.L3:
	.cfi_restore_state
	.loc 1 55 17 view .LVU28
	incq	%rax
	xorl	%edx, %edx
	jmp	.L6
	.cfi_endproc
.LFE7773:
	.size	main._omp_fn.1, .-main._omp_fn.1
	.p2align 4
	.type	main._omp_fn.0, @function
main._omp_fn.0:
.LVL15:
.LFB7772:
	.loc 1 37 17 is_stmt 1 view -0
	.cfi_startproc
	.cfi_personality 0x9b,DW.ref.__gxx_personality_v0
	.loc 1 37 17 is_stmt 0 view .LVU30
	endbr64
.LVL16:
	.loc 1 37 17 view .LVU31
	pushq	%rbp
	.cfi_def_cfa_offset 16
	.cfi_offset 6, -16
.LVL17:
	.loc 1 37 17 view .LVU32
	movq	%rsp, %rbp
	.cfi_def_cfa_register 6
	pushq	%r13
	pushq	%r12
	pushq	%rbx
	.cfi_offset 13, -24
	.cfi_offset 12, -32
	.cfi_offset 3, -40
	movq	(%rdi), %rbx
.LVL18:
	.loc 1 37 17 view .LVU33
	andq	$-32, %rsp
	cmpq	$3, %rbx
	je	.L18
	movq	%rdi, %r13
	call	omp_get_num_threads@PLT
.LVL19:
	.loc 1 37 17 view .LVU34
	movl	%eax, %r12d
	call	omp_get_thread_num@PLT
.LVL20:
	movslq	%eax, %rcx
	movq	%rbx, %rax
	shrq	$2, %rax
	movslq	%r12d, %rsi
	xorl	%edx, %edx
	divq	%rsi
	cmpq	%rdx, %rcx
	jb	.L13
.L16:
	imulq	%rax, %rcx
	addq	%rcx, %rdx
	addq	%rdx, %rax
	cmpq	%rax, %rdx
	jnb	.L18
	.loc 1 37 17 view .LVU35
	movq	8(%r13), %rcx
	salq	$2, %rdx
.LVL21:
	.loc 1 37 17 view .LVU36
	salq	$2, %rax
	.p2align 4,,10
	.p2align 3
.L15:
	.loc 1 38 37 is_stmt 1 discriminator 3 view .LVU37
.LBB359:
.LBB360:
	.loc 1 39 13 discriminator 3 view .LVU38
.LVL22:
.LBB361:
.LBI361:
	.file 3 "/usr/lib/gcc/x86_64-linux-gnu/9/include/avxintrin.h"
	.loc 3 884 1 discriminator 3 view .LVU39
.LBB362:
	.loc 3 886 3 discriminator 3 view .LVU40
	.loc 3 886 24 is_stmt 0 discriminator 3 view .LVU41
	vmovupd	(%rcx,%rdx,8), %ymm0
.LVL23:
	.loc 3 886 24 discriminator 3 view .LVU42
.LBE362:
.LBE361:
	.loc 1 40 13 is_stmt 1 discriminator 3 view .LVU43
.LBB363:
.LBI363:
	.file 4 "/usr/lib/gcc/x86_64-linux-gnu/9/include/fmaintrin.h"
	.loc 4 47 1 discriminator 3 view .LVU44
.LBB364:
	.loc 4 49 3 discriminator 3 view .LVU45
	.loc 4 49 10 is_stmt 0 discriminator 3 view .LVU46
	vfmadd132pd	%ymm0, %ymm0, %ymm0
.LVL24:
	.loc 4 49 10 discriminator 3 view .LVU47
.LBE364:
.LBE363:
	.loc 1 41 13 is_stmt 1 discriminator 3 view .LVU48
.LBB365:
.LBI365:
	.loc 3 890 1 discriminator 3 view .LVU49
.LBB366:
	.loc 3 892 3 discriminator 3 view .LVU50
	.loc 3 892 21 is_stmt 0 discriminator 3 view .LVU51
	vmovupd	%ymm0, (%rcx,%rdx,8)
.LVL25:
	.loc 3 892 21 discriminator 3 view .LVU52
	addq	$4, %rdx
.LVL26:
	.loc 3 892 21 discriminator 3 view .LVU53
	cmpq	%rdx, %rax
	ja	.L15
	vzeroupper
.LVL27:
.L18:
	.loc 3 892 21 discriminator 3 view .LVU54
.LBE366:
.LBE365:
.LBE360:
.LBE359:
	.loc 1 37 17 view .LVU55
	leaq	-24(%rbp), %rsp
	popq	%rbx
.LVL28:
	.loc 1 37 17 view .LVU56
	popq	%r12
	popq	%r13
	popq	%rbp
	.cfi_remember_state
	.cfi_def_cfa 7, 8
	ret
.LVL29:
	.p2align 4,,10
	.p2align 3
.L13:
	.cfi_restore_state
	.loc 1 37 17 view .LVU57
	incq	%rax
	xorl	%edx, %edx
	jmp	.L16
	.cfi_endproc
.LFE7772:
	.size	main._omp_fn.0, .-main._omp_fn.0
	.section	.rodata.str1.8,"aMS",@progbits,1
	.align 8
.LC0:
	.string	"cannot create std::vector larger than max_size()"
	.section	.rodata.str1.1,"aMS",@progbits,1
.LC5:
	.string	"\t"
	.section	.text.unlikely,"ax",@progbits
.LCOLDB6:
	.section	.text.startup,"ax",@progbits
.LHOTB6:
	.p2align 4
	.section	.text.unlikely
.Ltext_cold0:
	.section	.text.startup
	.globl	main
	.type	main, @function
main:
.LVL30:
.LFB7216:
	.loc 1 8 32 is_stmt 1 view -0
	.cfi_startproc
	.cfi_personality 0x9b,DW.ref.__gxx_personality_v0
	.cfi_lsda 0x1b,.LLSDA7216
	.loc 1 8 32 is_stmt 0 view .LVU59
	endbr64
	leaq	8(%rsp), %r10
	.cfi_def_cfa 10, 0
	andq	$-32, %rsp
	pushq	-8(%r10)
.LBB472:
.LBB473:
	.file 5 "/usr/include/stdlib.h"
	.loc 5 363 23 view .LVU60
	movl	$10, %edx
.LBE473:
.LBE472:
	.loc 1 8 32 view .LVU61
	pushq	%rbp
	.cfi_escape 0x10,0x6,0x2,0x76,0
	movq	%rsp, %rbp
	pushq	%r15
	pushq	%r14
	pushq	%r13
	pushq	%r12
	pushq	%r10
	.cfi_escape 0xf,0x3,0x76,0x58,0x6
	.cfi_escape 0x10,0xf,0x2,0x76,0x78
	.cfi_escape 0x10,0xe,0x2,0x76,0x70
	.cfi_escape 0x10,0xd,0x2,0x76,0x68
	.cfi_escape 0x10,0xc,0x2,0x76,0x60
	pushq	%rbx
	subq	$64, %rsp
	.cfi_escape 0x10,0x3,0x2,0x76,0x50
.LBB476:
.LBB474:
	.loc 5 363 23 view .LVU62
	movq	8(%rsi), %rdi
.LVL31:
	.loc 5 363 23 view .LVU63
	xorl	%esi, %esi
.LVL32:
	.loc 5 363 23 view .LVU64
.LBE474:
.LBE476:
	.loc 1 8 32 view .LVU65
	movq	%fs:40, %rax
	movq	%rax, -56(%rbp)
	xorl	%eax, %eax
	.loc 1 9 5 is_stmt 1 view .LVU66
.LBB477:
.LBI472:
	.loc 5 361 1 view .LVU67
.LBB475:
	.loc 5 363 3 view .LVU68
	.loc 5 363 23 is_stmt 0 view .LVU69
	call	strtol@PLT
.LVL33:
.LBE475:
.LBE477:
	.loc 1 9 12 view .LVU70
	movslq	%eax, %rbx
.LVL34:
	.loc 1 10 5 is_stmt 1 view .LVU71
.LBB478:
.LBI478:
	.file 6 "/usr/include/c++/9/bits/allocator.h"
	.loc 6 138 7 view .LVU72
.LBB479:
.LBI479:
	.file 7 "/usr/include/c++/9/ext/new_allocator.h"
	.loc 7 80 7 view .LVU73
	.loc 7 80 7 is_stmt 0 view .LVU74
.LBE479:
.LBE478:
.LBB480:
.LBI480:
	.file 8 "/usr/include/c++/9/bits/stl_vector.h"
	.loc 8 519 7 is_stmt 1 view .LVU75
.LBB481:
.LBI481:
	.loc 8 1764 7 view .LVU76
.LBB482:
.LBB483:
.LBI483:
	.loc 6 141 7 view .LVU77
.LBB484:
.LBI484:
	.loc 7 83 7 view .LVU78
	.loc 7 83 7 is_stmt 0 view .LVU79
.LBE484:
.LBE483:
.LBB485:
.LBI485:
	.loc 6 153 7 is_stmt 1 view .LVU80
.LBB486:
.LBI486:
	.loc 7 89 7 view .LVU81
.LBE486:
.LBE485:
	.loc 8 1766 2 is_stmt 0 view .LVU82
	movabsq	$1152921504606846975, %rax
	cmpq	%rax, %rbx
	ja	.L68
.LVL35:
	.loc 8 1766 2 view .LVU83
.LBE482:
.LBE481:
.LBB489:
.LBI489:
	.loc 8 300 7 is_stmt 1 view .LVU84
.LBB490:
.LBI490:
	.loc 8 133 2 view .LVU85
.LBB491:
.LBI491:
	.loc 6 141 7 view .LVU86
.LBB492:
.LBI492:
	.loc 7 83 7 view .LVU87
	.loc 7 83 7 is_stmt 0 view .LVU88
.LBE492:
.LBE491:
.LBB493:
.LBI493:
	.loc 8 94 2 is_stmt 1 view .LVU89
	.loc 8 94 2 is_stmt 0 view .LVU90
.LBE493:
.LBE490:
.LBB494:
.LBI494:
	.loc 8 356 7 is_stmt 1 view .LVU91
.LBB495:
.LBI495:
	.loc 8 340 7 view .LVU92
.LBB496:
	.loc 8 343 18 is_stmt 0 view .LVU93
	testq	%rbx, %rbx
	je	.L22
.LVL36:
.LBB497:
.LBI497:
	.file 9 "/usr/include/c++/9/bits/alloc_traits.h"
	.loc 9 443 7 is_stmt 1 view .LVU94
.LBB498:
.LBI498:
	.loc 7 102 7 view .LVU95
.LBB499:
	.loc 7 114 41 is_stmt 0 view .LVU96
	leaq	0(,%rbx,8), %rdi
.LEHB0:
	call	_Znwm@PLT
.LVL37:
.LEHE0:
	leaq	-1(%rbx), %r13
	movq	%rax, %r12
.LVL38:
	.loc 7 114 41 view .LVU97
.LBE499:
.LBE498:
.LBE497:
.LBE496:
.LBE495:
.LBE494:
.LBE489:
.LBB509:
.LBI509:
	.loc 8 1590 7 is_stmt 1 view .LVU98
.LBB510:
.LBI510:
	.file 10 "/usr/include/c++/9/bits/stl_uninitialized.h"
	.loc 10 382 5 view .LVU99
.LBB511:
.LBI511:
	.loc 10 256 5 view .LVU100
.LBB512:
.LBB513:
.LBI513:
	.loc 10 238 9 view .LVU101
.LBB514:
.LBI514:
	.file 11 "/usr/include/c++/9/bits/stl_algobase.h"
	.loc 11 802 5 view .LVU102
.LBB515:
.LBI515:
	.loc 11 767 5 view .LVU103
.LBB516:
.LBB517:
	.loc 11 771 13 view .LVU104
	cmpq	$2, %r13
	jbe	.L41
	movq	%rbx, %rdx
	shrq	$2, %rdx
	salq	$5, %rdx
	vmovapd	.LC1(%rip), %ymm0
	addq	%rax, %rdx
.LVL39:
	.p2align 4,,10
	.p2align 3
.L24:
	.loc 11 772 2 is_stmt 0 view .LVU105
	vmovupd	%ymm0, (%rax)
	.loc 11 770 7 is_stmt 1 view .LVU106
	.loc 11 771 13 view .LVU107
	addq	$32, %rax
	cmpq	%rax, %rdx
	jne	.L24
	movq	%rbx, %rdx
	andq	$-4, %rdx
	movq	%rbx, %rcx
	andl	$3, %ecx
	leaq	(%r12,%rdx,8), %rax
	cmpq	%rdx, %rbx
	je	.L69
	vzeroupper
.L23:
.LVL40:
	.loc 11 772 2 is_stmt 0 view .LVU108
	vmovsd	.LC2(%rip), %xmm0
	vmovsd	%xmm0, (%rax)
	.loc 11 770 7 is_stmt 1 view .LVU109
.LVL41:
	.loc 11 771 13 view .LVU110
	cmpq	$1, %rcx
	je	.L25
	.loc 11 772 2 is_stmt 0 view .LVU111
	vmovsd	%xmm0, 8(%rax)
	.loc 11 770 7 is_stmt 1 view .LVU112
.LVL42:
	.loc 11 771 13 view .LVU113
	cmpq	$2, %rcx
	je	.L25
	.loc 11 772 2 is_stmt 0 view .LVU114
	vmovsd	%xmm0, 16(%rax)
	.loc 11 770 7 is_stmt 1 view .LVU115
.LVL43:
	.loc 11 771 13 view .LVU116
.L25:
	.loc 11 771 13 is_stmt 0 view .LVU117
.LBE517:
.LBE516:
.LBE515:
.LBE514:
.LBE513:
.LBE512:
.LBE511:
.LBE510:
.LBE509:
.LBE480:
.LBB522:
.LBI522:
	.loc 6 153 7 is_stmt 1 view .LVU118
.LBB523:
.LBI523:
	.loc 7 89 7 view .LVU119
	.loc 7 89 7 is_stmt 0 view .LVU120
.LBE523:
.LBE522:
	.loc 1 13 5 is_stmt 1 view .LVU121
	.loc 1 16 5 view .LVU122
	.loc 1 16 33 is_stmt 0 view .LVU123
	call	omp_get_wtime@PLT
.LVL44:
	movq	%rbx, %rdx
	shrq	$2, %rdx
	salq	$5, %rdx
	movq	%rbx, %r8
	vmovsd	%xmm0, -88(%rbp)
.LVL45:
	.loc 1 18 5 is_stmt 1 view .LVU124
.LBB525:
	.loc 1 18 25 view .LVU125
	.loc 1 18 25 is_stmt 0 view .LVU126
	addq	%r12, %rdx
	andq	$-4, %r8
.LBE525:
	.loc 1 16 33 view .LVU127
	movl	$1, %ecx
.LVL46:
.L29:
	.loc 1 16 33 view .LVU128
	cmpq	$2, %r13
	jbe	.L42
	movq	%r12, %rax
.LVL47:
	.p2align 4,,10
	.p2align 3
.L27:
.LBB538:
.LBB526:
.LBB527:
	.loc 1 21 34 is_stmt 1 discriminator 1 view .LVU129
	.loc 1 22 13 discriminator 1 view .LVU130
	.loc 1 22 19 is_stmt 0 discriminator 1 view .LVU131
	vmovupd	(%rax), %ymm0
	addq	$32, %rax
	vfmadd132pd	%ymm0, %ymm0, %ymm0
.LBE527:
.LBE526:
	.loc 1 18 5 is_stmt 1 discriminator 1 view .LVU132
.LVL48:
	.loc 1 18 25 discriminator 1 view .LVU133
.LBB533:
.LBB528:
	.loc 1 21 34 discriminator 1 view .LVU134
	.loc 1 22 13 discriminator 1 view .LVU135
	.loc 1 22 19 is_stmt 0 discriminator 1 view .LVU136
	vfmadd132pd	%ymm0, %ymm0, %ymm0
	vmovupd	%ymm0, -32(%rax)
	cmpq	%rdx, %rax
	jne	.L27
	.loc 1 22 19 view .LVU137
	movq	%r8, %rax
	cmpq	%r8, %rbx
	je	.L28
.LVL49:
.L26:
	.loc 1 21 34 is_stmt 1 view .LVU138
	.loc 1 22 13 view .LVU139
	.loc 1 22 19 is_stmt 0 view .LVU140
	leaq	0(,%rax,8), %rsi
	leaq	(%r12,%rsi), %rdi
	vmovsd	(%rdi), %xmm0
	vfmadd132sd	%xmm0, %xmm0, %xmm0
.LVL50:
	.loc 1 22 19 view .LVU141
.LBE528:
.LBE533:
	.loc 1 18 5 is_stmt 1 view .LVU142
	.loc 1 18 25 view .LVU143
.LBB534:
.LBB529:
	.loc 1 21 34 view .LVU144
	.loc 1 22 13 view .LVU145
	.loc 1 22 19 is_stmt 0 view .LVU146
	vfmadd132sd	%xmm0, %xmm0, %xmm0
	vmovsd	%xmm0, (%rdi)
.LVL51:
	.loc 1 22 19 view .LVU147
	leaq	1(%rax), %rdi
.LVL52:
	.loc 1 22 19 view .LVU148
	cmpq	%rdi, %rbx
	jbe	.L28
	.loc 1 21 34 is_stmt 1 view .LVU149
	.loc 1 22 13 view .LVU150
	.loc 1 22 19 is_stmt 0 view .LVU151
	leaq	8(%r12,%rsi), %rdi
.LVL53:
	.loc 1 22 19 view .LVU152
	vmovsd	(%rdi), %xmm0
	addq	$2, %rax
.LVL54:
	.loc 1 22 19 view .LVU153
	vfmadd132sd	%xmm0, %xmm0, %xmm0
.LVL55:
	.loc 1 22 19 view .LVU154
.LBE529:
.LBE534:
	.loc 1 18 5 is_stmt 1 view .LVU155
	.loc 1 18 25 view .LVU156
.LBB535:
.LBB530:
	.loc 1 21 34 view .LVU157
	.loc 1 22 13 view .LVU158
	.loc 1 22 19 is_stmt 0 view .LVU159
	vfmadd132sd	%xmm0, %xmm0, %xmm0
	vmovsd	%xmm0, (%rdi)
.LVL56:
	.loc 1 22 19 view .LVU160
	cmpq	%rax, %rbx
	jbe	.L28
	.loc 1 21 34 is_stmt 1 view .LVU161
	.loc 1 22 13 view .LVU162
	.loc 1 22 19 is_stmt 0 view .LVU163
	leaq	16(%r12,%rsi), %rax
	vmovsd	(%rax), %xmm0
	vfmadd132sd	%xmm0, %xmm0, %xmm0
	.loc 1 22 19 view .LVU164
.LBE530:
.LBE535:
	.loc 1 18 5 is_stmt 1 view .LVU165
	.loc 1 18 25 view .LVU166
.LBB536:
.LBB531:
	.loc 1 21 34 view .LVU167
	.loc 1 22 13 view .LVU168
	.loc 1 22 19 is_stmt 0 view .LVU169
	vfmadd132sd	%xmm0, %xmm0, %xmm0
	vmovsd	%xmm0, (%rax)
.L28:
	.loc 1 22 19 view .LVU170
.LBE531:
.LBE536:
	.loc 1 18 5 is_stmt 1 view .LVU171
.LVL57:
	.loc 1 18 25 view .LVU172
	addq	$2, %rcx
.LVL58:
	.loc 1 18 25 is_stmt 0 view .LVU173
	cmpq	$9, %rcx
	jne	.L29
	.loc 1 18 16 view .LVU174
	movl	$8, %edi
.LVL59:
	.loc 1 18 16 view .LVU175
	cmpq	$2, %r13
	jbe	.L43
	.p2align 4,,10
	.p2align 3
.L71:
	.loc 1 18 25 view .LVU176
	movq	%r12, %rax
.LVL60:
	.p2align 4,,10
	.p2align 3
.L31:
.LBB537:
.LBB532:
	.loc 1 21 34 is_stmt 1 view .LVU177
	.loc 1 22 13 view .LVU178
	.loc 1 22 19 is_stmt 0 view .LVU179
	vmovupd	(%rax), %ymm0
	addq	$32, %rax
	vfmadd132pd	%ymm0, %ymm0, %ymm0
	vmovupd	%ymm0, -32(%rax)
	cmpq	%rdx, %rax
	jne	.L31
	movq	%r8, %rax
	cmpq	%r8, %rbx
	je	.L32
.L30:
.LVL61:
	.loc 1 21 34 is_stmt 1 view .LVU180
	.loc 1 22 13 view .LVU181
	.loc 1 22 19 is_stmt 0 view .LVU182
	leaq	0(,%rax,8), %rcx
	leaq	(%r12,%rcx), %rsi
	vmovsd	(%rsi), %xmm0
	vfmadd132sd	%xmm0, %xmm0, %xmm0
	vmovsd	%xmm0, (%rsi)
.LVL62:
	.loc 1 22 19 view .LVU183
	leaq	1(%rax), %rsi
.LVL63:
	.loc 1 22 19 view .LVU184
	cmpq	%rbx, %rsi
	jnb	.L32
	.loc 1 21 34 is_stmt 1 view .LVU185
	.loc 1 22 13 view .LVU186
	.loc 1 22 19 is_stmt 0 view .LVU187
	leaq	8(%r12,%rcx), %rsi
.LVL64:
	.loc 1 22 19 view .LVU188
	vmovsd	(%rsi), %xmm0
	addq	$2, %rax
.LVL65:
	.loc 1 22 19 view .LVU189
	vfmadd132sd	%xmm0, %xmm0, %xmm0
	vmovsd	%xmm0, (%rsi)
.LVL66:
	.loc 1 22 19 view .LVU190
	cmpq	%rax, %rbx
	jbe	.L32
	.loc 1 21 34 is_stmt 1 view .LVU191
	.loc 1 22 13 view .LVU192
	.loc 1 22 19 is_stmt 0 view .LVU193
	leaq	16(%r12,%rcx), %rax
	vmovsd	(%rax), %xmm0
	vfmadd132sd	%xmm0, %xmm0, %xmm0
	vmovsd	%xmm0, (%rax)
.L32:
	.loc 1 22 19 view .LVU194
.LBE532:
.LBE537:
	.loc 1 18 5 is_stmt 1 view .LVU195
.LVL67:
	.loc 1 18 25 view .LVU196
	cmpq	$9, %rdi
	je	.L70
	.loc 1 18 25 is_stmt 0 view .LVU197
	movl	$9, %edi
.LVL68:
	.loc 1 18 25 view .LVU198
	cmpq	$2, %r13
	ja	.L71
.L43:
	.loc 1 18 25 view .LVU199
	xorl	%eax, %eax
	jmp	.L30
.LVL69:
.L69:
	.loc 1 18 25 view .LVU200
	vzeroupper
	jmp	.L25
.LVL70:
	.p2align 4,,10
	.p2align 3
.L70:
	.loc 1 18 25 view .LVU201
	vzeroupper
.LVL71:
.L39:
	.loc 1 18 25 view .LVU202
.LBE538:
	.loc 1 27 5 is_stmt 1 view .LVU203
	.loc 1 27 33 is_stmt 0 view .LVU204
	call	omp_get_wtime@PLT
.LVL72:
	.loc 1 29 20 view .LVU205
	leaq	(%rbx,%rbx), %rax
	.loc 1 29 23 view .LVU206
	vxorps	%xmm1, %xmm1, %xmm1
	vcvtsi2sdq	%rax, %xmm1, %xmm1
	.loc 1 27 36 view .LVU207
	vsubsd	-88(%rbp), %xmm0, %xmm0
.LBB539:
.LBB540:
	.file 12 "/usr/include/c++/9/ostream"
	.loc 12 221 29 view .LVU208
	leaq	_ZSt4cout(%rip), %rdi
.LBE540:
.LBE539:
	.loc 1 29 23 view .LVU209
	vmovsd	%xmm1, -88(%rbp)
	.loc 1 27 47 view .LVU210
	vdivsd	.LC3(%rip), %xmm0, %xmm0
.LVL73:
	.loc 1 29 5 is_stmt 1 view .LVU211
	.loc 1 30 5 view .LVU212
.LBB543:
.LBI539:
	.loc 12 220 7 view .LVU213
.LBE543:
	.loc 1 29 23 is_stmt 0 view .LVU214
	vdivsd	%xmm0, %xmm1, %xmm1
	.loc 1 29 12 view .LVU215
	vdivsd	.LC4(%rip), %xmm1, %xmm4
	vmovsd	%xmm4, -96(%rbp)
.LVL74:
.LEHB1:
.LBB544:
.LBB541:
	.loc 12 221 29 view .LVU216
	call	_ZNSo9_M_insertIdEERSoT_@PLT
.LVL75:
	.loc 12 221 29 view .LVU217
.LBE541:
.LBE544:
.LBB545:
.LBB546:
	.loc 12 570 18 view .LVU218
	movl	$1, %edx
	leaq	.LC5(%rip), %rsi
	movq	%rax, %rdi
.LBE546:
.LBE545:
.LBB548:
.LBB542:
	.loc 12 221 29 view .LVU219
	movq	%rax, %r13
.LVL76:
	.loc 12 221 29 view .LVU220
.LBE542:
.LBE548:
.LBB549:
.LBI545:
	.loc 12 565 5 is_stmt 1 view .LVU221
	.loc 12 565 5 is_stmt 0 view .LVU222
.LBE549:
	.file 13 "/usr/include/c++/9/bits/char_traits.h"
	.loc 13 335 2 is_stmt 1 view .LVU223
.LBB550:
.LBB547:
	.loc 12 570 18 is_stmt 0 view .LVU224
	call	_ZSt16__ostream_insertIcSt11char_traitsIcEERSt13basic_ostreamIT_T0_ES6_PKS3_l@PLT
.LVL77:
	.loc 12 570 18 view .LVU225
.LBE547:
.LBE550:
.LBB551:
.LBI551:
	.loc 12 220 7 is_stmt 1 view .LVU226
.LBB552:
	.loc 12 221 29 is_stmt 0 view .LVU227
	vmovsd	-96(%rbp), %xmm0
	movq	%r13, %rdi
	call	_ZNSo9_M_insertIdEERSoT_@PLT
.LVL78:
	movq	%rax, %rdi
.LVL79:
	.loc 12 221 29 view .LVU228
.LBE552:
.LBE551:
.LBB553:
.LBI553:
	.loc 12 108 7 is_stmt 1 view .LVU229
.LBB554:
	.loc 12 113 13 is_stmt 0 view .LVU230
	call	_ZSt4endlIcSt11char_traitsIcEERSt13basic_ostreamIT_T0_ES6_@PLT
.LVL80:
	.loc 12 113 13 view .LVU231
.LBE554:
.LBE553:
	.loc 1 33 5 is_stmt 1 view .LVU232
	.loc 1 33 26 is_stmt 0 view .LVU233
	call	omp_get_wtime@PLT
.LVL81:
	vmovsd	%xmm0, -96(%rbp)
.LVL82:
	.loc 1 35 5 is_stmt 1 view .LVU234
.LBB555:
	.loc 1 35 25 view .LVU235
.LBE555:
	.loc 1 33 26 is_stmt 0 view .LVU236
	movl	$10, %r13d
	leaq	-80(%rbp), %r14
	leaq	main._omp_fn.0(%rip), %r15
.LVL83:
	.p2align 4,,10
	.p2align 3
.L34:
.LBB558:
.LBB556:
	.loc 1 37 17 is_stmt 1 view .LVU237
	xorl	%ecx, %ecx
	xorl	%edx, %edx
	movq	%r14, %rsi
	movq	%r15, %rdi
.LBB557:
	movq	%r12, -72(%rbp)
	movq	%rbx, -80(%rbp)
	call	GOMP_parallel@PLT
.LVL84:
.LBE557:
.LBE556:
	.loc 1 35 5 view .LVU238
	.loc 1 35 25 view .LVU239
	decq	%r13
	jne	.L34
.LBE558:
	.loc 1 46 5 view .LVU240
	.loc 1 46 26 is_stmt 0 view .LVU241
	call	omp_get_wtime@PLT
.LVL85:
	.loc 1 46 29 view .LVU242
	vsubsd	-96(%rbp), %xmm0, %xmm0
	.loc 1 48 16 view .LVU243
	vmovsd	-88(%rbp), %xmm6
.LBB559:
.LBB560:
	.loc 12 221 29 view .LVU244
	leaq	_ZSt4cout(%rip), %rdi
.LBE560:
.LBE559:
	.loc 1 46 10 view .LVU245
	vdivsd	.LC3(%rip), %xmm0, %xmm0
.LVL86:
	.loc 1 48 5 is_stmt 1 view .LVU246
	.loc 1 49 5 view .LVU247
.LBB563:
.LBI559:
	.loc 12 220 7 view .LVU248
.LBE563:
	.loc 1 48 16 is_stmt 0 view .LVU249
	vdivsd	%xmm0, %xmm6, %xmm1
	.loc 1 48 10 view .LVU250
	vdivsd	.LC4(%rip), %xmm1, %xmm7
	vmovsd	%xmm7, -96(%rbp)
.LVL87:
.LBB564:
.LBB561:
	.loc 12 221 29 view .LVU251
	call	_ZNSo9_M_insertIdEERSoT_@PLT
.LVL88:
	.loc 12 221 29 view .LVU252
.LBE561:
.LBE564:
.LBB565:
.LBB566:
	.loc 12 570 18 view .LVU253
	movl	$1, %edx
	leaq	.LC5(%rip), %rsi
	movq	%rax, %rdi
.LBE566:
.LBE565:
.LBB568:
.LBB562:
	.loc 12 221 29 view .LVU254
	movq	%rax, %r13
.LVL89:
	.loc 12 221 29 view .LVU255
.LBE562:
.LBE568:
.LBB569:
.LBI565:
	.loc 12 565 5 is_stmt 1 view .LVU256
	.loc 12 565 5 is_stmt 0 view .LVU257
.LBE569:
	.loc 13 335 2 is_stmt 1 view .LVU258
.LBB570:
.LBB567:
	.loc 12 570 18 is_stmt 0 view .LVU259
	call	_ZSt16__ostream_insertIcSt11char_traitsIcEERSt13basic_ostreamIT_T0_ES6_PKS3_l@PLT
.LVL90:
	.loc 12 570 18 view .LVU260
.LBE567:
.LBE570:
.LBB571:
.LBI571:
	.loc 12 220 7 is_stmt 1 view .LVU261
.LBB572:
	.loc 12 221 29 is_stmt 0 view .LVU262
	vmovsd	-96(%rbp), %xmm0
	movq	%r13, %rdi
	call	_ZNSo9_M_insertIdEERSoT_@PLT
.LVL91:
	movq	%rax, %rdi
.LVL92:
	.loc 12 221 29 view .LVU263
.LBE572:
.LBE571:
.LBB573:
.LBI573:
	.loc 12 108 7 is_stmt 1 view .LVU264
.LBB574:
	.loc 12 113 13 is_stmt 0 view .LVU265
	call	_ZSt4endlIcSt11char_traitsIcEERSt13basic_ostreamIT_T0_ES6_@PLT
.LVL93:
	.loc 12 113 13 view .LVU266
.LBE574:
.LBE573:
	.loc 1 51 5 is_stmt 1 view .LVU267
	.loc 1 51 26 is_stmt 0 view .LVU268
	call	omp_get_wtime@PLT
.LVL94:
	vmovsd	%xmm0, -96(%rbp)
.LVL95:
	.loc 1 53 5 is_stmt 1 view .LVU269
.LBB575:
	.loc 1 53 25 view .LVU270
.LBE575:
	.loc 1 51 26 is_stmt 0 view .LVU271
	movl	$10, %r13d
	leaq	main._omp_fn.1(%rip), %r15
.LVL96:
	.p2align 4,,10
	.p2align 3
.L35:
.LBB578:
.LBB576:
	.loc 1 55 17 is_stmt 1 view .LVU272
	xorl	%ecx, %ecx
	xorl	%edx, %edx
	movq	%r14, %rsi
	movq	%r15, %rdi
.LBB577:
	movq	%r12, -72(%rbp)
	movq	%rbx, -80(%rbp)
	call	GOMP_parallel@PLT
.LVL97:
.LBE577:
.LBE576:
	.loc 1 53 5 view .LVU273
	.loc 1 53 25 view .LVU274
	decq	%r13
	jne	.L35
.LBE578:
	.loc 1 64 5 view .LVU275
	.loc 1 64 26 is_stmt 0 view .LVU276
	call	omp_get_wtime@PLT
.LVL98:
	.loc 1 64 29 view .LVU277
	vsubsd	-96(%rbp), %xmm0, %xmm0
	.loc 1 66 16 view .LVU278
	vmovsd	-88(%rbp), %xmm4
.LBB579:
.LBB580:
	.loc 12 221 29 view .LVU279
	leaq	_ZSt4cout(%rip), %rdi
.LBE580:
.LBE579:
	.loc 1 64 10 view .LVU280
	vdivsd	.LC3(%rip), %xmm0, %xmm0
.LVL99:
	.loc 1 66 5 is_stmt 1 view .LVU281
	.loc 1 67 5 view .LVU282
.LBB583:
.LBI579:
	.loc 12 220 7 view .LVU283
.LBE583:
	.loc 1 66 16 is_stmt 0 view .LVU284
	vdivsd	%xmm0, %xmm4, %xmm1
	.loc 1 66 10 view .LVU285
	vdivsd	.LC4(%rip), %xmm1, %xmm5
	vmovsd	%xmm5, -88(%rbp)
.LBB584:
.LBB581:
	.loc 12 221 29 view .LVU286
	call	_ZNSo9_M_insertIdEERSoT_@PLT
.LVL100:
	.loc 12 221 29 view .LVU287
.LBE581:
.LBE584:
.LBB585:
.LBB586:
	.loc 12 570 18 view .LVU288
	movl	$1, %edx
	leaq	.LC5(%rip), %rsi
	movq	%rax, %rdi
.LBE586:
.LBE585:
.LBB588:
.LBB582:
	.loc 12 221 29 view .LVU289
	movq	%rax, %r13
.LVL101:
	.loc 12 221 29 view .LVU290
.LBE582:
.LBE588:
.LBB589:
.LBI585:
	.loc 12 565 5 is_stmt 1 view .LVU291
	.loc 12 565 5 is_stmt 0 view .LVU292
.LBE589:
	.loc 13 335 2 is_stmt 1 view .LVU293
.LBB590:
.LBB587:
	.loc 12 570 18 is_stmt 0 view .LVU294
	call	_ZSt16__ostream_insertIcSt11char_traitsIcEERSt13basic_ostreamIT_T0_ES6_PKS3_l@PLT
.LVL102:
	.loc 12 570 18 view .LVU295
.LBE587:
.LBE590:
.LBB591:
.LBI591:
	.loc 12 220 7 is_stmt 1 view .LVU296
.LBB592:
	.loc 12 221 29 is_stmt 0 view .LVU297
	vmovsd	-88(%rbp), %xmm0
	movq	%r13, %rdi
	call	_ZNSo9_M_insertIdEERSoT_@PLT
.LVL103:
	movq	%rax, %rdi
.LVL104:
	.loc 12 221 29 view .LVU298
.LBE592:
.LBE591:
.LBB593:
.LBI593:
	.loc 12 108 7 is_stmt 1 view .LVU299
.LBB594:
	.loc 12 113 13 is_stmt 0 view .LVU300
	call	_ZSt4endlIcSt11char_traitsIcEERSt13basic_ostreamIT_T0_ES6_@PLT
.LVL105:
.LEHE1:
	.loc 12 113 13 view .LVU301
.LBE594:
.LBE593:
	.loc 1 70 5 is_stmt 1 view .LVU302
.LBB595:
.LBI595:
	.loc 8 675 7 view .LVU303
.LBB596:
.LBI596:
	.loc 8 273 7 view .LVU304
	.loc 8 273 7 is_stmt 0 view .LVU305
.LBE596:
.LBB597:
.LBI597:
	.file 14 "/usr/include/c++/9/bits/stl_construct.h"
	.loc 14 203 5 is_stmt 1 view .LVU306
	.loc 14 203 5 is_stmt 0 view .LVU307
.LBE597:
.LBB598:
.LBI598:
	.loc 8 330 7 is_stmt 1 view .LVU308
.LBB599:
.LBI599:
	.loc 8 347 7 view .LVU309
.LBB600:
	.loc 8 350 2 is_stmt 0 view .LVU310
	testq	%r12, %r12
	je	.L36
.LVL106:
.LBB601:
.LBI601:
	.loc 9 469 7 is_stmt 1 view .LVU311
.LBB602:
.LBB603:
.LBI603:
	.loc 7 119 7 view .LVU312
.LBB604:
	.loc 7 128 19 is_stmt 0 view .LVU313
	movq	%r12, %rdi
	call	_ZdlPv@PLT
.LVL107:
.L36:
	.loc 7 128 19 view .LVU314
.LBE604:
.LBE603:
.LBE602:
.LBE601:
.LBE600:
.LBE599:
.LBB605:
.LBI605:
	.loc 8 125 14 is_stmt 1 view .LVU315
.LBB606:
.LBI606:
	.loc 6 153 7 view .LVU316
.LBB607:
.LBI607:
	.loc 7 89 7 view .LVU317
	.loc 7 89 7 is_stmt 0 view .LVU318
.LBE607:
.LBE606:
.LBE605:
.LBE598:
.LBE595:
	.loc 1 71 1 view .LVU319
	movq	-56(%rbp), %rax
	xorq	%fs:40, %rax
	jne	.L72
	addq	$64, %rsp
	popq	%rbx
.LVL108:
	.loc 1 71 1 view .LVU320
	popq	%r10
	.cfi_remember_state
	.cfi_def_cfa 10, 0
	popq	%r12
.LVL109:
	.loc 1 71 1 view .LVU321
	popq	%r13
	popq	%r14
	popq	%r15
	xorl	%eax, %eax
	popq	%rbp
.LVL110:
	.loc 1 71 1 view .LVU322
	leaq	-8(%r10), %rsp
	.cfi_def_cfa 7, 8
.LVL111:
	.loc 1 71 1 view .LVU323
	ret
.LVL112:
.L22:
	.cfi_restore_state
.LBB608:
	.loc 6 153 7 is_stmt 1 view .LVU324
.LBB524:
	.loc 7 89 7 view .LVU325
	.loc 7 89 7 is_stmt 0 view .LVU326
.LBE524:
.LBE608:
	.loc 1 13 5 is_stmt 1 view .LVU327
	.loc 1 16 5 view .LVU328
	.loc 1 16 33 is_stmt 0 view .LVU329
	call	omp_get_wtime@PLT
.LVL113:
	vmovsd	%xmm0, -88(%rbp)
.LVL114:
	.loc 1 18 5 is_stmt 1 view .LVU330
.LBB609:
	.loc 1 18 25 view .LVU331
.LBE609:
.LBB610:
.LBB518:
.LBB507:
.LBB505:
.LBB503:
	.loc 8 343 18 is_stmt 0 view .LVU332
	xorl	%r12d, %r12d
	jmp	.L39
.LVL115:
.L42:
	.loc 8 343 18 view .LVU333
.LBE503:
.LBE505:
.LBE507:
.LBE518:
.LBE610:
	.loc 1 16 33 view .LVU334
	xorl	%eax, %eax
	jmp	.L26
.LVL116:
.L41:
.LBB611:
.LBB519:
.LBB508:
.LBB506:
.LBB504:
.LBB502:
.LBB501:
.LBB500:
	.loc 7 114 41 view .LVU335
	movq	%rbx, %rcx
	jmp	.L23
.LVL117:
.L72:
	.loc 7 114 41 view .LVU336
.LBE500:
.LBE501:
.LBE502:
.LBE504:
.LBE506:
.LBE508:
.LBE519:
.LBE611:
	.loc 1 71 1 view .LVU337
	call	__stack_chk_fail@PLT
.LVL118:
.L68:
.LBB612:
.LBB520:
.LBB487:
	.loc 8 1767 24 view .LVU338
	leaq	.LC0(%rip), %rdi
.LEHB2:
	call	_ZSt20__throw_length_errorPKc@PLT
.LVL119:
.LEHE2:
.L45:
	.loc 8 1767 24 view .LVU339
	endbr64
	movq	%rax, %r13
	jmp	.L37
.LBE487:
.LBE520:
.LBE612:
	.globl	__gxx_personality_v0
	.section	.gcc_except_table,"a",@progbits
.LLSDA7216:
	.byte	0xff
	.byte	0xff
	.byte	0x1
	.uleb128 .LLSDACSE7216-.LLSDACSB7216
.LLSDACSB7216:
	.uleb128 .LEHB0-.LFB7216
	.uleb128 .LEHE0-.LEHB0
	.uleb128 0
	.uleb128 0
	.uleb128 .LEHB1-.LFB7216
	.uleb128 .LEHE1-.LEHB1
	.uleb128 .L45-.LFB7216
	.uleb128 0
	.uleb128 .LEHB2-.LFB7216
	.uleb128 .LEHE2-.LEHB2
	.uleb128 0
	.uleb128 0
.LLSDACSE7216:
	.section	.text.startup
	.cfi_endproc
	.section	.text.unlikely
	.cfi_startproc
	.cfi_personality 0x9b,DW.ref.__gxx_personality_v0
	.cfi_lsda 0x1b,.LLSDAC7216
	.type	main.cold, @function
main.cold:
.LFSB7216:
.LBB613:
.LBB521:
.LBB488:
.L37:
	.cfi_escape 0xf,0x3,0x76,0x58,0x6
	.cfi_escape 0x10,0x3,0x2,0x76,0x50
	.cfi_escape 0x10,0x6,0x2,0x76,0
	.cfi_escape 0x10,0xc,0x2,0x76,0x60
	.cfi_escape 0x10,0xd,0x2,0x76,0x68
	.cfi_escape 0x10,0xe,0x2,0x76,0x70
	.cfi_escape 0x10,0xf,0x2,0x76,0x78
.LVL120:
	.loc 8 1767 24 view -0
.LBE488:
.LBE521:
.LBE613:
.LBB614:
.LBI614:
	.loc 8 675 7 is_stmt 1 view .LVU341
.LBB615:
.LBI615:
	.loc 8 273 7 view .LVU342
	.loc 8 273 7 is_stmt 0 view .LVU343
.LBE615:
.LBB616:
.LBI616:
	.loc 14 203 5 is_stmt 1 view .LVU344
	.loc 14 203 5 is_stmt 0 view .LVU345
.LBE616:
.LBB617:
.LBI617:
	.loc 8 330 7 is_stmt 1 view .LVU346
.LBB618:
.LBI618:
	.loc 8 347 7 view .LVU347
.LBB619:
	.loc 8 350 2 is_stmt 0 view .LVU348
	testq	%r12, %r12
	je	.L66
.LVL121:
.LBB620:
.LBI620:
	.loc 9 469 7 is_stmt 1 view .LVU349
.LBB621:
.LBB622:
.LBI622:
	.loc 7 119 7 view .LVU350
.LBB623:
	.loc 7 128 19 is_stmt 0 view .LVU351
	movq	%r12, %rdi
	vzeroupper
	call	_ZdlPv@PLT
.LVL122:
.L38:
	.loc 7 128 19 view .LVU352
.LBE623:
.LBE622:
.LBE621:
.LBE620:
.LBE619:
.LBE618:
.LBB624:
.LBI624:
	.loc 8 125 14 is_stmt 1 view .LVU353
.LBB625:
.LBI625:
	.loc 6 153 7 view .LVU354
.LBB626:
.LBI626:
	.loc 7 89 7 view .LVU355
	.loc 7 89 7 is_stmt 0 view .LVU356
	movq	%r13, %rdi
.LEHB3:
	call	_Unwind_Resume@PLT
.LVL123:
.LEHE3:
.L66:
	.loc 7 89 7 view .LVU357
	vzeroupper
	jmp	.L38
.LBE626:
.LBE625:
.LBE624:
.LBE617:
.LBE614:
	.cfi_endproc
.LFE7216:
	.section	.gcc_except_table
.LLSDAC7216:
	.byte	0xff
	.byte	0xff
	.byte	0x1
	.uleb128 .LLSDACSEC7216-.LLSDACSBC7216
.LLSDACSBC7216:
	.uleb128 .LEHB3-.LCOLDB6
	.uleb128 .LEHE3-.LEHB3
	.uleb128 0
	.uleb128 0
.LLSDACSEC7216:
	.section	.text.unlikely
	.section	.text.startup
	.size	main, .-main
	.section	.text.unlikely
	.size	main.cold, .-main.cold
.LCOLDE6:
	.section	.text.startup
.LHOTE6:
	.p2align 4
	.type	_GLOBAL__sub_I_main, @function
_GLOBAL__sub_I_main:
.LFB7771:
	.loc 1 71 1 is_stmt 1 view -0
	.cfi_startproc
	endbr64
.LVL124:
.LBB627:
.LBI627:
	.loc 1 71 1 view .LVU359
.LBE627:
	subq	$8, %rsp
	.cfi_def_cfa_offset 16
.LBB630:
.LBB628:
	.file 15 "/usr/include/c++/9/iostream"
	.loc 15 74 25 is_stmt 0 view .LVU360
	leaq	_ZStL8__ioinit(%rip), %rdi
	call	_ZNSt8ios_base4InitC1Ev@PLT
.LVL125:
	movq	_ZNSt8ios_base4InitD1Ev@GOTPCREL(%rip), %rdi
	leaq	__dso_handle(%rip), %rdx
	leaq	_ZStL8__ioinit(%rip), %rsi
.LBE628:
.LBE630:
	.loc 1 71 1 view .LVU361
	addq	$8, %rsp
	.cfi_def_cfa_offset 8
.LBB631:
.LBB629:
	.loc 15 74 25 view .LVU362
	jmp	__cxa_atexit@PLT
.LVL126:
.LBE629:
.LBE631:
	.cfi_endproc
.LFE7771:
	.size	_GLOBAL__sub_I_main, .-_GLOBAL__sub_I_main
	.section	.init_array,"aw"
	.align 8
	.quad	_GLOBAL__sub_I_main
	.local	_ZStL8__ioinit
	.comm	_ZStL8__ioinit,1,1
	.section	.rodata.cst32,"aM",@progbits,32
	.align 32
.LC1:
	.long	0
	.long	1072693248
	.long	0
	.long	1072693248
	.long	0
	.long	1072693248
	.long	0
	.long	1072693248
	.section	.rodata.cst8,"aM",@progbits,8
	.align 8
.LC2:
	.long	0
	.long	1072693248
	.align 8
.LC3:
	.long	0
	.long	1076101120
	.align 8
.LC4:
	.long	0
	.long	1104006501
	.text
.Letext0:
	.section	.text.unlikely
.Letext_cold0:
	.file 16 "/usr/include/c++/9/cwchar"
	.file 17 "/usr/include/c++/9/new"
	.file 18 "/usr/include/c++/9/bits/exception_ptr.h"
	.file 19 "/usr/include/c++/9/type_traits"
	.file 20 "/usr/include/x86_64-linux-gnu/c++/9/bits/c++config.h"
	.file 21 "/usr/include/c++/9/bits/stl_pair.h"
	.file 22 "/usr/include/c++/9/debug/debug.h"
	.file 23 "/usr/include/c++/9/cstdint"
	.file 24 "/usr/include/c++/9/clocale"
	.file 25 "/usr/include/c++/9/cstdlib"
	.file 26 "/usr/include/c++/9/cstdio"
	.file 27 "/usr/include/c++/9/bits/basic_string.h"
	.file 28 "/usr/include/c++/9/system_error"
	.file 29 "/usr/include/c++/9/bits/ios_base.h"
	.file 30 "/usr/include/c++/9/cwctype"
	.file 31 "/usr/include/c++/9/bits/locale_facets.h"
	.file 32 "/usr/include/c++/9/iosfwd"
	.file 33 "/usr/include/c++/9/bits/std_abs.h"
	.file 34 "/usr/include/c++/9/bits/vector.tcc"
	.file 35 "/usr/include/c++/9/initializer_list"
	.file 36 "/usr/include/c++/9/bits/basic_ios.h"
	.file 37 "/usr/include/c++/9/bits/ostream.tcc"
	.file 38 "/usr/include/c++/9/bits/functexcept.h"
	.file 39 "/usr/include/c++/9/bits/ostream_insert.h"
	.file 40 "/usr/include/c++/9/bits/predefined_ops.h"
	.file 41 "/usr/include/c++/9/ext/numeric_traits.h"
	.file 42 "/usr/include/c++/9/ext/alloc_traits.h"
	.file 43 "/usr/include/c++/9/ext/type_traits.h"
	.file 44 "/usr/lib/gcc/x86_64-linux-gnu/9/include/stddef.h"
	.file 45 "<built-in>"
	.file 46 "/usr/include/x86_64-linux-gnu/bits/types/wint_t.h"
	.file 47 "/usr/include/x86_64-linux-gnu/bits/types/__mbstate_t.h"
	.file 48 "/usr/include/x86_64-linux-gnu/bits/types/mbstate_t.h"
	.file 49 "/usr/include/x86_64-linux-gnu/bits/types/__FILE.h"
	.file 50 "/usr/include/x86_64-linux-gnu/bits/types/struct_FILE.h"
	.file 51 "/usr/include/x86_64-linux-gnu/bits/types/FILE.h"
	.file 52 "/usr/include/wchar.h"
	.file 53 "/usr/include/x86_64-linux-gnu/bits/wchar2.h"
	.file 54 "/usr/include/x86_64-linux-gnu/bits/types/struct_tm.h"
	.file 55 "/usr/include/x86_64-linux-gnu/bits/types.h"
	.file 56 "/usr/include/x86_64-linux-gnu/bits/stdint-intn.h"
	.file 57 "/usr/include/x86_64-linux-gnu/bits/stdint-uintn.h"
	.file 58 "/usr/include/stdint.h"
	.file 59 "/usr/include/locale.h"
	.file 60 "/usr/include/time.h"
	.file 61 "/usr/include/x86_64-linux-gnu/c++/9/bits/atomic_word.h"
	.file 62 "/usr/include/x86_64-linux-gnu/bits/stdlib-float.h"
	.file 63 "/usr/include/x86_64-linux-gnu/bits/stdlib-bsearch.h"
	.file 64 "/usr/include/x86_64-linux-gnu/bits/stdlib.h"
	.file 65 "/usr/include/x86_64-linux-gnu/bits/types/__fpos_t.h"
	.file 66 "/usr/include/stdio.h"
	.file 67 "/usr/include/x86_64-linux-gnu/bits/sys_errlist.h"
	.file 68 "/usr/include/x86_64-linux-gnu/bits/stdio2.h"
	.file 69 "/usr/include/x86_64-linux-gnu/bits/stdio.h"
	.file 70 "/usr/include/errno.h"
	.file 71 "/usr/include/x86_64-linux-gnu/bits/wctype-wchar.h"
	.file 72 "/usr/include/wctype.h"
	.file 73 "/usr/include/c++/9/stdlib.h"
	.file 74 "/usr/lib/gcc/x86_64-linux-gnu/9/include/omp.h"
	.section	.data.rel.local.DW.ref.__gxx_personality_v0,"awG",@progbits,DW.ref.__gxx_personality_v0,comdat
	.align 8
	.type	DW.ref.__gxx_personality_v0, @object
	.size	DW.ref.__gxx_personality_v0, 8
DW.ref.__gxx_personality_v0:
	.quad	__gxx_personality_v0
	.hidden	__dso_handle
	.ident	"GCC: (Ubuntu 9.3.0-17ubuntu1~20.04) 9.3.0"
	.section	.note.GNU-stack,"",@progbits
	.section	.note.gnu.property,"a"
	.align 8
	.long	 1f - 0f
	.long	 4f - 1f
	.long	 5
0:
	.string	 "GNU"
1:
	.align 8
	.long	 0xc0000002
	.long	 3f - 2f
2:
	.long	 0x3
3:
	.align 8
4:
