	.file	"vecadd.cpp"
	.text
.Ltext0:
	.section	.rodata._ZNSt6vectorIdSaIdEEC2EmRKdRKS0_.str1.8,"aMS",@progbits,1
	.align 8
.LC0:
	.string	"cannot create std::vector larger than max_size()"
	.section	.text._ZNSt6vectorIdSaIdEEC2EmRKdRKS0_,"axG",@progbits,_ZNSt6vectorIdSaIdEEC5EmRKdRKS0_,comdat
	.align 2
	.p2align 4
	.weak	_ZNSt6vectorIdSaIdEEC2EmRKdRKS0_
	.type	_ZNSt6vectorIdSaIdEEC2EmRKdRKS0_, @function
_ZNSt6vectorIdSaIdEEC2EmRKdRKS0_:
.LVL0:
.LFB2191:
	.file 1 "/usr/include/c++/9/bits/stl_vector.h"
	.loc 1 519 7 view -0
	.cfi_startproc
	.loc 1 519 7 is_stmt 0 view .LVU1
	endbr64
.LVL1:
.LBB417:
.LBB418:
.LBI418:
	.loc 1 1764 7 is_stmt 1 view .LVU2
.LBB419:
.LBB420:
.LBI420:
	.file 2 "/usr/include/c++/9/bits/allocator.h"
	.loc 2 141 7 view .LVU3
.LBB421:
.LBI421:
	.file 3 "/usr/include/c++/9/ext/new_allocator.h"
	.loc 3 83 7 view .LVU4
	.loc 3 83 7 is_stmt 0 view .LVU5
.LBE421:
.LBE420:
.LBB422:
.LBI422:
	.loc 2 153 7 is_stmt 1 view .LVU6
.LBB423:
.LBI423:
	.loc 3 89 7 view .LVU7
.LBE423:
.LBE422:
.LBE419:
.LBE418:
.LBE417:
	.loc 1 519 7 is_stmt 0 view .LVU8
	pushq	%rbp
	.cfi_def_cfa_offset 16
	.cfi_offset 6, -16
.LBB455:
.LBB427:
.LBB424:
	.loc 1 1766 2 view .LVU9
	movabsq	$1152921504606846975, %rax
.LBE424:
.LBE427:
.LBE455:
	.loc 1 519 7 view .LVU10
	movq	%rsp, %rbp
	.cfi_def_cfa_register 6
	pushq	%r14
	pushq	%r13
	pushq	%r12
	pushq	%rbx
	andq	$-32, %rsp
	.cfi_offset 14, -24
	.cfi_offset 13, -32
	.cfi_offset 12, -40
	.cfi_offset 3, -48
.LBB456:
.LBB428:
.LBB425:
	.loc 1 1766 2 view .LVU11
	cmpq	%rax, %rsi
	ja	.L20
	movq	%rsi, %rbx
.LVL2:
	.loc 1 1766 2 view .LVU12
.LBE425:
.LBE428:
.LBB429:
.LBI429:
	.loc 1 300 7 is_stmt 1 view .LVU13
.LBB430:
.LBI430:
	.loc 1 133 2 view .LVU14
.LBB431:
.LBI431:
	.loc 2 141 7 view .LVU15
.LBB432:
.LBI432:
	.loc 3 83 7 view .LVU16
	.loc 3 83 7 is_stmt 0 view .LVU17
.LBE432:
.LBE431:
.LBB433:
.LBI433:
	.loc 1 94 2 is_stmt 1 view .LVU18
	leaq	0(,%rsi,8), %r14
.LBB434:
	.loc 1 95 47 is_stmt 0 view .LVU19
	movq	$0, (%rdi)
	movq	$0, 8(%rdi)
	movq	$0, 16(%rdi)
.LVL3:
	.loc 1 95 47 view .LVU20
.LBE434:
.LBE433:
.LBE430:
.LBB435:
.LBI435:
	.loc 1 356 7 is_stmt 1 view .LVU21
.LBB436:
.LBB437:
.LBI437:
	.loc 1 340 7 view .LVU22
	.loc 1 340 7 is_stmt 0 view .LVU23
	movq	%rdi, %r12
.LBB438:
	.loc 1 343 18 view .LVU24
	xorl	%esi, %esi
.LVL4:
	.loc 1 343 18 view .LVU25
	testq	%rbx, %rbx
	je	.L7
.LBB439:
.LBB440:
.LBB441:
	.loc 3 114 41 view .LVU26
	movq	%r14, %rdi
.LVL5:
	.loc 3 114 41 view .LVU27
	movq	%rdx, %r13
.LVL6:
	.loc 3 114 41 view .LVU28
.LBE441:
.LBE440:
.LBI439:
	.file 4 "/usr/include/c++/9/bits/alloc_traits.h"
	.loc 4 443 7 is_stmt 1 view .LVU29
.LBB443:
.LBI440:
	.loc 3 102 7 view .LVU30
.LBB442:
	.loc 3 114 41 is_stmt 0 view .LVU31
	call	_Znwm@PLT
.LVL7:
	.loc 3 114 41 view .LVU32
.LBE442:
.LBE443:
.LBE439:
.LBE438:
.LBE437:
	.loc 1 360 59 view .LVU33
	leaq	(%rax,%r14), %rsi
	leaq	-1(%rbx), %rdx
	.loc 1 358 2 view .LVU34
	movq	%rax, (%r12)
	.loc 1 360 2 view .LVU35
	movq	%rsi, 16(%r12)
.LVL8:
	.loc 1 360 2 view .LVU36
.LBE436:
.LBE435:
.LBE429:
	.loc 1 522 9 view .LVU37
	vmovsd	0(%r13), %xmm1
.LVL9:
.LBB444:
.LBI444:
	.loc 1 1590 7 is_stmt 1 view .LVU38
.LBB445:
.LBB446:
.LBI446:
	.file 5 "/usr/include/c++/9/bits/stl_uninitialized.h"
	.loc 5 382 5 view .LVU39
.LBB447:
.LBI447:
	.loc 5 256 5 view .LVU40
.LBB448:
.LBB449:
.LBI449:
	.loc 5 238 9 view .LVU41
.LBB450:
.LBI450:
	.file 6 "/usr/include/c++/9/bits/stl_algobase.h"
	.loc 6 802 5 view .LVU42
.LBB451:
.LBI451:
	.loc 6 767 5 view .LVU43
.LBB452:
.LBB453:
	.loc 6 771 13 view .LVU44
	cmpq	$2, %rdx
	jbe	.L8
	movq	%rbx, %rcx
	shrq	$2, %rcx
	salq	$5, %rcx
	vbroadcastsd	%xmm1, %ymm0
	movq	%rax, %rdx
	addq	%rax, %rcx
.LVL10:
	.p2align 4,,10
	.p2align 3
.L5:
	.loc 6 772 2 is_stmt 0 view .LVU45
	vmovupd	%ymm0, (%rdx)
	.loc 6 770 7 is_stmt 1 view .LVU46
	.loc 6 771 13 view .LVU47
	addq	$32, %rdx
	cmpq	%rcx, %rdx
	jne	.L5
	movq	%rbx, %rdx
	andq	$-4, %rdx
	movq	%rbx, %rcx
	andl	$3, %ecx
	leaq	(%rax,%rdx,8), %rax
.LVL11:
	.loc 6 771 13 is_stmt 0 view .LVU48
	cmpq	%rdx, %rbx
	je	.L21
	vzeroupper
.L4:
.LVL12:
	.loc 6 772 2 view .LVU49
	vmovsd	%xmm1, (%rax)
	.loc 6 770 7 is_stmt 1 view .LVU50
.LVL13:
	.loc 6 771 13 view .LVU51
	cmpq	$1, %rcx
	je	.L7
	.loc 6 772 2 is_stmt 0 view .LVU52
	vmovsd	%xmm1, 8(%rax)
	.loc 6 770 7 is_stmt 1 view .LVU53
.LVL14:
	.loc 6 771 13 view .LVU54
	cmpq	$2, %rcx
	je	.L7
	.loc 6 772 2 is_stmt 0 view .LVU55
	vmovsd	%xmm1, 16(%rax)
	.loc 6 770 7 is_stmt 1 view .LVU56
.LVL15:
	.loc 6 771 13 view .LVU57
.L7:
	.loc 6 771 13 is_stmt 0 view .LVU58
.LBE453:
.LBE452:
.LBE451:
.LBE450:
.LBE449:
.LBE448:
.LBE447:
.LBE446:
	.loc 1 1592 2 view .LVU59
	movq	%rsi, 8(%r12)
.LBE445:
.LBE444:
.LBE456:
	.loc 1 522 43 view .LVU60
	leaq	-32(%rbp), %rsp
	popq	%rbx
.LVL16:
	.loc 1 522 43 view .LVU61
	popq	%r12
.LVL17:
	.loc 1 522 43 view .LVU62
	popq	%r13
	popq	%r14
	popq	%rbp
	.cfi_remember_state
	.cfi_def_cfa 7, 8
	ret
.LVL18:
	.p2align 4,,10
	.p2align 3
.L21:
	.cfi_restore_state
	.loc 1 522 43 view .LVU63
	vzeroupper
	jmp	.L7
.LVL19:
.L8:
.LBB457:
	.loc 1 522 9 view .LVU64
	movq	%rbx, %rcx
	jmp	.L4
.LVL20:
.L20:
.LBB454:
.LBB426:
	.loc 1 1767 24 view .LVU65
	leaq	.LC0(%rip), %rdi
.LVL21:
	.loc 1 1767 24 view .LVU66
	call	_ZSt20__throw_length_errorPKc@PLT
.LVL22:
	.loc 1 1767 24 view .LVU67
.LBE426:
.LBE454:
.LBE457:
	.cfi_endproc
.LFE2191:
	.size	_ZNSt6vectorIdSaIdEEC2EmRKdRKS0_, .-_ZNSt6vectorIdSaIdEEC2EmRKdRKS0_
	.weak	_ZNSt6vectorIdSaIdEEC1EmRKdRKS0_
	.set	_ZNSt6vectorIdSaIdEEC1EmRKdRKS0_,_ZNSt6vectorIdSaIdEEC2EmRKdRKS0_
	.section	.rodata.str1.1,"aMS",@progbits,1
.LC6:
	.string	"\t"
	.section	.text.unlikely,"ax",@progbits
.LCOLDB7:
	.section	.text.startup,"ax",@progbits
.LHOTB7:
	.p2align 4
	.section	.text.unlikely
.Ltext_cold0:
	.section	.text.startup
	.globl	main
	.type	main, @function
main:
.LVL23:
.LFB1948:
	.file 7 "vecadd.cpp"
	.loc 7 7 32 is_stmt 1 view -0
	.cfi_startproc
	.cfi_personality 0x9b,DW.ref.__gxx_personality_v0
	.cfi_lsda 0x1b,.LLSDA1948
	.loc 7 7 32 is_stmt 0 view .LVU69
	endbr64
	leaq	8(%rsp), %r10
	.cfi_def_cfa 10, 0
	andq	$-32, %rsp
	pushq	-8(%r10)
.LBB458:
.LBB459:
	.file 8 "/usr/include/stdlib.h"
	.loc 8 363 23 view .LVU70
	movl	$10, %edx
.LBE459:
.LBE458:
	.loc 7 7 32 view .LVU71
	pushq	%rbp
	.cfi_escape 0x10,0x6,0x2,0x76,0
	movq	%rsp, %rbp
	pushq	%r14
	.cfi_escape 0x10,0xe,0x2,0x76,0x78
	.loc 7 9 32 view .LVU72
	leaq	-112(%rbp), %r14
	.loc 7 7 32 view .LVU73
	pushq	%r13
	.cfi_escape 0x10,0xd,0x2,0x76,0x70
	.loc 7 10 32 view .LVU74
	leaq	-152(%rbp), %r13
	.loc 7 7 32 view .LVU75
	pushq	%r12
	.cfi_escape 0x10,0xc,0x2,0x76,0x68
	.loc 7 9 32 view .LVU76
	leaq	-80(%rbp), %r12
	.loc 7 7 32 view .LVU77
	pushq	%r10
	.cfi_escape 0xf,0x3,0x76,0x60,0x6
	pushq	%rbx
	subq	$136, %rsp
	.cfi_escape 0x10,0x3,0x2,0x76,0x58
.LBB462:
.LBB460:
	.loc 8 363 23 view .LVU78
	movq	8(%rsi), %rdi
.LVL24:
	.loc 8 363 23 view .LVU79
	xorl	%esi, %esi
.LVL25:
	.loc 8 363 23 view .LVU80
.LBE460:
.LBE462:
	.loc 7 7 32 view .LVU81
	movq	%fs:40, %rax
	movq	%rax, -56(%rbp)
	xorl	%eax, %eax
	.loc 7 8 5 is_stmt 1 view .LVU82
.LBB463:
.LBI458:
	.loc 8 361 1 view .LVU83
.LBB461:
	.loc 8 363 3 view .LVU84
	.loc 8 363 23 is_stmt 0 view .LVU85
	call	strtol@PLT
.LVL26:
.LBE461:
.LBE463:
	.loc 7 8 12 view .LVU86
	movslq	%eax, %rbx
.LVL27:
	.loc 7 9 5 is_stmt 1 view .LVU87
.LBB464:
.LBI464:
	.loc 2 138 7 view .LVU88
.LBB465:
.LBI465:
	.loc 3 80 7 view .LVU89
	.loc 3 80 7 is_stmt 0 view .LVU90
.LBE465:
.LBE464:
	.loc 7 9 29 view .LVU91
	movq	.LC1(%rip), %rax
	.loc 7 9 32 view .LVU92
	leaq	-144(%rbp), %rdi
	movq	%r14, %rcx
	movq	%r12, %rdx
	movq	%rbx, %rsi
	.loc 7 9 29 view .LVU93
	movq	%rax, -80(%rbp)
.LEHB0:
	.loc 7 9 32 view .LVU94
	call	_ZNSt6vectorIdSaIdEEC1EmRKdRKS0_
.LVL28:
.LEHE0:
.LBB466:
.LBI466:
	.loc 2 153 7 is_stmt 1 view .LVU95
.LBB467:
.LBI467:
	.loc 3 89 7 view .LVU96
	.loc 3 89 7 is_stmt 0 view .LVU97
.LBE467:
.LBE466:
	.loc 7 10 5 is_stmt 1 view .LVU98
.LBB468:
.LBI468:
	.loc 2 138 7 view .LVU99
.LBB469:
.LBI469:
	.loc 3 80 7 view .LVU100
	.loc 3 80 7 is_stmt 0 view .LVU101
.LBE469:
.LBE468:
	.loc 7 10 29 view .LVU102
	movq	.LC2(%rip), %rax
	.loc 7 10 32 view .LVU103
	movq	%r13, %rcx
	movq	%r12, %rdx
	movq	%rbx, %rsi
	movq	%r14, %rdi
	.loc 7 10 29 view .LVU104
	movq	%rax, -80(%rbp)
.LEHB1:
	.loc 7 10 32 view .LVU105
	call	_ZNSt6vectorIdSaIdEEC1EmRKdRKS0_
.LVL29:
.LEHE1:
.LBB470:
.LBI470:
	.loc 2 153 7 is_stmt 1 discriminator 1 view .LVU106
.LBB471:
.LBI471:
	.loc 3 89 7 discriminator 1 view .LVU107
	.loc 3 89 7 is_stmt 0 discriminator 1 view .LVU108
.LBE471:
.LBE470:
	.loc 7 11 5 is_stmt 1 discriminator 1 view .LVU109
.LBB472:
.LBI472:
	.loc 2 138 7 discriminator 1 view .LVU110
.LBB473:
.LBI473:
	.loc 3 80 7 discriminator 1 view .LVU111
	.loc 3 80 7 is_stmt 0 discriminator 1 view .LVU112
.LBE473:
.LBE472:
	.loc 7 11 32 discriminator 1 view .LVU113
	leaq	-153(%rbp), %rcx
	movq	%r13, %rdx
	movq	%rbx, %rsi
	movq	%r12, %rdi
	.loc 7 11 29 discriminator 1 view .LVU114
	movq	$0x000000000, -152(%rbp)
.LEHB2:
	.loc 7 11 32 discriminator 1 view .LVU115
	call	_ZNSt6vectorIdSaIdEEC1EmRKdRKS0_
.LVL30:
.LEHE2:
.LBB474:
.LBI474:
	.loc 2 153 7 is_stmt 1 discriminator 1 view .LVU116
.LBB475:
.LBI475:
	.loc 3 89 7 discriminator 1 view .LVU117
	.loc 3 89 7 is_stmt 0 discriminator 1 view .LVU118
.LBE475:
.LBE474:
	.loc 7 13 5 is_stmt 1 discriminator 1 view .LVU119
	.loc 7 13 33 is_stmt 0 discriminator 1 view .LVU120
	call	omp_get_wtime@PLT
.LVL31:
	vmovsd	%xmm0, -168(%rbp)
.LVL32:
	.loc 7 15 5 is_stmt 1 discriminator 1 view .LVU121
	.loc 7 15 24 is_stmt 0 discriminator 1 view .LVU122
	movq	-144(%rbp), %rcx
.LVL33:
	.loc 7 16 5 is_stmt 1 discriminator 1 view .LVU123
	.loc 7 16 24 is_stmt 0 discriminator 1 view .LVU124
	movq	-112(%rbp), %rsi
.LVL34:
	.loc 7 17 5 is_stmt 1 discriminator 1 view .LVU125
	.loc 7 17 24 is_stmt 0 discriminator 1 view .LVU126
	movq	-80(%rbp), %rdx
.LVL35:
	.loc 7 19 5 is_stmt 1 discriminator 1 view .LVU127
.LBB476:
	.loc 7 19 25 discriminator 1 view .LVU128
	testq	%rbx, %rbx
	je	.L23
	movq	%rbx, %rdi
	shrq	$2, %rdi
	movq	%rbx, %r11
	leaq	-1(%rbx), %r12
.LVL36:
	.loc 7 19 25 is_stmt 0 discriminator 1 view .LVU129
	salq	$5, %rdi
	andq	$-4, %r11
.LBE476:
	.loc 7 17 24 discriminator 1 view .LVU130
	movl	$10, %r9d
.LVL37:
	.p2align 4,,10
	.p2align 3
.L27:
	.loc 7 17 24 view .LVU131
	xorl	%eax, %eax
	cmpq	$2, %r12
	jbe	.L24
.LVL38:
	.p2align 4,,10
	.p2align 3
.L25:
.LBB479:
.LBB477:
.LBB478:
	.loc 7 23 34 is_stmt 1 discriminator 1 view .LVU132
	.loc 7 24 13 discriminator 1 view .LVU133
	.loc 7 24 19 is_stmt 0 discriminator 1 view .LVU134
	vmovupd	(%rcx,%rax), %ymm0
	vmovupd	(%rdx,%rax), %ymm2
	vfmadd132pd	(%rsi,%rax), %ymm2, %ymm0
	vmovupd	%ymm0, (%rdx,%rax)
	addq	$32, %rax
	cmpq	%rax, %rdi
	jne	.L25
	cmpq	%r11, %rbx
	je	.L26
	.loc 7 24 19 view .LVU135
	movq	%r11, %rax
.L24:
.LVL39:
	.loc 7 23 34 is_stmt 1 view .LVU136
	.loc 7 24 13 view .LVU137
	.loc 7 24 19 is_stmt 0 view .LVU138
	leaq	0(,%rax,8), %r8
	leaq	(%rdx,%r8), %r10
	vmovsd	(%r10), %xmm3
	vmovsd	(%rcx,%rax,8), %xmm0
	vfmadd132sd	(%rsi,%rax,8), %xmm3, %xmm0
	vmovsd	%xmm0, (%r10)
.LVL40:
	.loc 7 24 19 view .LVU139
	leaq	1(%rax), %r10
.LVL41:
	.loc 7 24 19 view .LVU140
	cmpq	%r10, %rbx
	jbe	.L26
	.loc 7 23 34 is_stmt 1 view .LVU141
	.loc 7 24 13 view .LVU142
	.loc 7 24 19 is_stmt 0 view .LVU143
	leaq	8(%rdx,%r8), %r10
.LVL42:
	.loc 7 24 19 view .LVU144
	vmovsd	8(%rcx,%r8), %xmm0
	vmovsd	(%r10), %xmm4
	addq	$2, %rax
.LVL43:
	.loc 7 24 19 view .LVU145
	vfmadd132sd	8(%rsi,%r8), %xmm4, %xmm0
	vmovsd	%xmm0, (%r10)
.LVL44:
	.loc 7 24 19 view .LVU146
	cmpq	%rax, %rbx
	jbe	.L26
	.loc 7 23 34 is_stmt 1 view .LVU147
	.loc 7 24 13 view .LVU148
	.loc 7 24 19 is_stmt 0 view .LVU149
	leaq	16(%rdx,%r8), %rax
	vmovsd	16(%rsi,%r8), %xmm0
	vmovsd	(%rax), %xmm5
	vfmadd132sd	16(%rcx,%r8), %xmm5, %xmm0
	vmovsd	%xmm0, (%rax)
.L26:
	.loc 7 24 19 view .LVU150
.LBE478:
.LBE477:
	.loc 7 19 5 is_stmt 1 view .LVU151
	.loc 7 19 25 view .LVU152
	decq	%r9
	jne	.L27
	vzeroupper
.L23:
.LBE479:
	.loc 7 29 5 view .LVU153
	.loc 7 29 33 is_stmt 0 view .LVU154
	call	omp_get_wtime@PLT
.LVL45:
	.loc 7 29 36 view .LVU155
	vsubsd	-168(%rbp), %xmm0, %xmm1
	.loc 7 31 21 view .LVU156
	vcvtusi2sdq	%rbx, %xmm0, %xmm0
.LBB480:
.LBB481:
	.file 9 "/usr/include/c++/9/ostream"
	.loc 9 221 29 view .LVU157
	leaq	_ZSt4cout(%rip), %rdi
.LBE481:
.LBE480:
	.loc 7 29 47 view .LVU158
	vdivsd	.LC4(%rip), %xmm1, %xmm1
.LVL46:
	.loc 7 31 5 is_stmt 1 view .LVU159
	.loc 7 32 5 view .LVU160
.LBB485:
.LBI480:
	.loc 9 220 7 view .LVU161
.LBE485:
	.loc 7 31 21 is_stmt 0 view .LVU162
	vdivsd	%xmm1, %xmm0, %xmm0
	.loc 7 31 12 view .LVU163
	vdivsd	.LC5(%rip), %xmm0, %xmm7
.LBB486:
.LBB482:
	.loc 9 221 29 view .LVU164
	vmovapd	%xmm1, %xmm0
.LBE482:
.LBE486:
	.loc 7 31 12 view .LVU165
	vmovsd	%xmm7, -168(%rbp)
.LVL47:
.LEHB3:
.LBB487:
.LBB483:
	.loc 9 221 29 view .LVU166
	call	_ZNSo9_M_insertIdEERSoT_@PLT
.LVL48:
	.loc 9 221 29 view .LVU167
.LBE483:
.LBE487:
.LBB488:
.LBB489:
	.loc 9 570 18 view .LVU168
	movl	$1, %edx
	leaq	.LC6(%rip), %rsi
	movq	%rax, %rdi
.LBE489:
.LBE488:
.LBB491:
.LBB484:
	.loc 9 221 29 view .LVU169
	movq	%rax, %r12
.LVL49:
	.loc 9 221 29 view .LVU170
.LBE484:
.LBE491:
.LBB492:
.LBI488:
	.loc 9 565 5 is_stmt 1 view .LVU171
	.loc 9 565 5 is_stmt 0 view .LVU172
.LBE492:
	.file 10 "/usr/include/c++/9/bits/char_traits.h"
	.loc 10 335 2 is_stmt 1 view .LVU173
.LBB493:
.LBB490:
	.loc 9 570 18 is_stmt 0 view .LVU174
	call	_ZSt16__ostream_insertIcSt11char_traitsIcEERSt13basic_ostreamIT_T0_ES6_PKS3_l@PLT
.LVL50:
	.loc 9 570 18 view .LVU175
.LBE490:
.LBE493:
.LBB494:
.LBI494:
	.loc 9 220 7 is_stmt 1 view .LVU176
.LBB495:
	.loc 9 221 29 is_stmt 0 view .LVU177
	vmovsd	-168(%rbp), %xmm0
	movq	%r12, %rdi
	call	_ZNSo9_M_insertIdEERSoT_@PLT
.LVL51:
	movq	%rax, %rdi
.LVL52:
	.loc 9 221 29 view .LVU178
.LBE495:
.LBE494:
.LBB496:
.LBI496:
	.loc 9 108 7 is_stmt 1 view .LVU179
.LBB497:
	.loc 9 113 13 is_stmt 0 view .LVU180
	call	_ZSt4endlIcSt11char_traitsIcEERSt13basic_ostreamIT_T0_ES6_@PLT
.LVL53:
.LEHE3:
	.loc 9 113 13 view .LVU181
.LBE497:
.LBE496:
	.loc 7 34 5 is_stmt 1 view .LVU182
.LBB498:
.LBI498:
	.loc 1 675 7 view .LVU183
.LBB499:
.LBB500:
.LBI500:
	.loc 1 273 7 view .LVU184
	.loc 1 273 7 is_stmt 0 view .LVU185
.LBE500:
	.loc 1 677 15 view .LVU186
	movq	-80(%rbp), %rdi
.LBB501:
.LBI501:
	.file 11 "/usr/include/c++/9/bits/stl_construct.h"
	.loc 11 203 5 is_stmt 1 view .LVU187
.LVL54:
	.loc 11 203 5 is_stmt 0 view .LVU188
.LBE501:
.LBB502:
.LBI502:
	.loc 1 330 7 is_stmt 1 view .LVU189
.LBB503:
.LBI503:
	.loc 1 347 7 view .LVU190
.LBB504:
	.loc 1 350 2 is_stmt 0 view .LVU191
	testq	%rdi, %rdi
	je	.L28
.LVL55:
.LBB505:
.LBI505:
	.loc 4 469 7 is_stmt 1 view .LVU192
.LBB506:
.LBB507:
.LBI507:
	.loc 3 119 7 view .LVU193
.LBB508:
	.loc 3 128 19 is_stmt 0 view .LVU194
	call	_ZdlPv@PLT
.LVL56:
.L28:
	.loc 3 128 19 view .LVU195
.LBE508:
.LBE507:
.LBE506:
.LBE505:
.LBE504:
.LBE503:
.LBB509:
.LBI509:
	.loc 1 125 14 is_stmt 1 view .LVU196
.LBB510:
.LBI510:
	.loc 2 153 7 view .LVU197
.LBB511:
.LBI511:
	.loc 3 89 7 view .LVU198
	.loc 3 89 7 is_stmt 0 view .LVU199
.LBE511:
.LBE510:
.LBE509:
.LBE502:
.LBE499:
.LBE498:
.LBB512:
.LBI512:
	.loc 1 675 7 is_stmt 1 view .LVU200
.LBB513:
.LBB514:
.LBI514:
	.loc 1 273 7 view .LVU201
	.loc 1 273 7 is_stmt 0 view .LVU202
.LBE514:
	.loc 1 677 15 view .LVU203
	movq	-112(%rbp), %rdi
.LVL57:
.LBB515:
.LBI515:
	.loc 11 203 5 is_stmt 1 view .LVU204
	.loc 11 203 5 is_stmt 0 view .LVU205
.LBE515:
.LBB516:
.LBI516:
	.loc 1 330 7 is_stmt 1 view .LVU206
.LBB517:
.LBI517:
	.loc 1 347 7 view .LVU207
.LBB518:
	.loc 1 350 2 is_stmt 0 view .LVU208
	testq	%rdi, %rdi
	je	.L29
.LVL58:
.LBB519:
.LBI519:
	.loc 4 469 7 is_stmt 1 view .LVU209
.LBB520:
.LBB521:
.LBI521:
	.loc 3 119 7 view .LVU210
.LBB522:
	.loc 3 128 19 is_stmt 0 view .LVU211
	call	_ZdlPv@PLT
.LVL59:
.L29:
	.loc 3 128 19 view .LVU212
.LBE522:
.LBE521:
.LBE520:
.LBE519:
.LBE518:
.LBE517:
.LBB523:
.LBI523:
	.loc 1 125 14 is_stmt 1 view .LVU213
.LBB524:
.LBI524:
	.loc 2 153 7 view .LVU214
.LBB525:
.LBI525:
	.loc 3 89 7 view .LVU215
	.loc 3 89 7 is_stmt 0 view .LVU216
.LBE525:
.LBE524:
.LBE523:
.LBE516:
.LBE513:
.LBE512:
.LBB526:
.LBI526:
	.loc 1 675 7 is_stmt 1 view .LVU217
.LBB527:
.LBB528:
.LBI528:
	.loc 1 273 7 view .LVU218
	.loc 1 273 7 is_stmt 0 view .LVU219
.LBE528:
	.loc 1 677 15 view .LVU220
	movq	-144(%rbp), %rdi
.LVL60:
.LBB529:
.LBI529:
	.loc 11 203 5 is_stmt 1 view .LVU221
	.loc 11 203 5 is_stmt 0 view .LVU222
.LBE529:
.LBB530:
.LBI530:
	.loc 1 330 7 is_stmt 1 view .LVU223
.LBB531:
.LBI531:
	.loc 1 347 7 view .LVU224
.LBB532:
	.loc 1 350 2 is_stmt 0 view .LVU225
	testq	%rdi, %rdi
	je	.L30
.LVL61:
.LBB533:
.LBI533:
	.loc 4 469 7 is_stmt 1 view .LVU226
.LBB534:
.LBB535:
.LBI535:
	.loc 3 119 7 view .LVU227
.LBB536:
	.loc 3 128 19 is_stmt 0 view .LVU228
	call	_ZdlPv@PLT
.LVL62:
.L30:
	.loc 3 128 19 view .LVU229
.LBE536:
.LBE535:
.LBE534:
.LBE533:
.LBE532:
.LBE531:
.LBB537:
.LBI537:
	.loc 1 125 14 is_stmt 1 view .LVU230
.LBB538:
.LBI538:
	.loc 2 153 7 view .LVU231
.LBB539:
.LBI539:
	.loc 3 89 7 view .LVU232
	.loc 3 89 7 is_stmt 0 view .LVU233
.LBE539:
.LBE538:
.LBE537:
.LBE530:
.LBE527:
.LBE526:
	.loc 7 35 1 view .LVU234
	movq	-56(%rbp), %rax
	xorq	%fs:40, %rax
	jne	.L68
	addq	$136, %rsp
	popq	%rbx
.LVL63:
	.loc 7 35 1 view .LVU235
	popq	%r10
	.cfi_remember_state
	.cfi_def_cfa 10, 0
	popq	%r12
	popq	%r13
	popq	%r14
	xorl	%eax, %eax
	popq	%rbp
.LVL64:
	.loc 7 35 1 view .LVU236
	leaq	-8(%r10), %rsp
	.cfi_def_cfa 7, 8
.LVL65:
	.loc 7 35 1 view .LVU237
	ret
.LVL66:
.L68:
	.cfi_restore_state
	.loc 7 35 1 view .LVU238
	call	__stack_chk_fail@PLT
.LVL67:
.L41:
	.loc 7 35 1 view .LVU239
	endbr64
	movq	%rax, %r12
	jmp	.L31
.LVL68:
.L40:
	.loc 7 35 1 view .LVU240
	endbr64
	movq	%rax, %r12
	vzeroupper
	jmp	.L33
.L39:
	endbr64
	movq	%rax, %r12
	vzeroupper
	jmp	.L35
.LVL69:
	.loc 7 35 1 view .LVU241
	.globl	__gxx_personality_v0
	.section	.gcc_except_table,"a",@progbits
.LLSDA1948:
	.byte	0xff
	.byte	0xff
	.byte	0x1
	.uleb128 .LLSDACSE1948-.LLSDACSB1948
.LLSDACSB1948:
	.uleb128 .LEHB0-.LFB1948
	.uleb128 .LEHE0-.LEHB0
	.uleb128 0
	.uleb128 0
	.uleb128 .LEHB1-.LFB1948
	.uleb128 .LEHE1-.LEHB1
	.uleb128 .L39-.LFB1948
	.uleb128 0
	.uleb128 .LEHB2-.LFB1948
	.uleb128 .LEHE2-.LEHB2
	.uleb128 .L40-.LFB1948
	.uleb128 0
	.uleb128 .LEHB3-.LFB1948
	.uleb128 .LEHE3-.LEHB3
	.uleb128 .L41-.LFB1948
	.uleb128 0
.LLSDACSE1948:
	.section	.text.startup
	.cfi_endproc
	.section	.text.unlikely
	.cfi_startproc
	.cfi_personality 0x9b,DW.ref.__gxx_personality_v0
	.cfi_lsda 0x1b,.LLSDAC1948
	.type	main.cold, @function
main.cold:
.LFSB1948:
.L31:
	.cfi_escape 0xf,0x3,0x76,0x60,0x6
	.cfi_escape 0x10,0x3,0x2,0x76,0x58
	.cfi_escape 0x10,0x6,0x2,0x76,0
	.cfi_escape 0x10,0xc,0x2,0x76,0x68
	.cfi_escape 0x10,0xd,0x2,0x76,0x70
	.cfi_escape 0x10,0xe,0x2,0x76,0x78
.LVL70:
.LBB540:
	.loc 1 675 7 is_stmt 1 view -0
.LBB541:
.LBB542:
.LBI542:
	.loc 1 273 7 view .LVU243
	.loc 1 273 7 is_stmt 0 view .LVU244
.LBE542:
	.loc 1 677 15 view .LVU245
	movq	-80(%rbp), %rdi
.LBB543:
.LBI543:
	.loc 11 203 5 is_stmt 1 view .LVU246
.LVL71:
	.loc 11 203 5 is_stmt 0 view .LVU247
.LBE543:
.LBB544:
.LBI544:
	.loc 1 330 7 is_stmt 1 view .LVU248
.LBB545:
.LBI545:
	.loc 1 347 7 view .LVU249
.LBB546:
	.loc 1 350 2 is_stmt 0 view .LVU250
	testq	%rdi, %rdi
	je	.L66
.LVL72:
.LBB547:
.LBI547:
	.loc 4 469 7 is_stmt 1 view .LVU251
.LBB548:
.LBB549:
.LBI549:
	.loc 3 119 7 view .LVU252
.LBB550:
	.loc 3 128 19 is_stmt 0 view .LVU253
	vzeroupper
	call	_ZdlPv@PLT
.LVL73:
	.loc 3 128 19 view .LVU254
.LBE550:
.LBE549:
.LBE548:
.LBE547:
.LBE546:
.LBE545:
.LBB551:
.LBI551:
	.loc 1 125 14 is_stmt 1 view .LVU255
.LBB552:
.LBI552:
	.loc 2 153 7 view .LVU256
.LBB553:
.LBI553:
	.loc 3 89 7 view .LVU257
.L33:
	.loc 3 89 7 is_stmt 0 view .LVU258
.LBE553:
.LBE552:
.LBE551:
.LBE544:
.LBE541:
.LBE540:
.LBB554:
.LBI554:
	.loc 1 675 7 is_stmt 1 view .LVU259
.LBB555:
.LBB556:
.LBI556:
	.loc 1 273 7 view .LVU260
	.loc 1 273 7 is_stmt 0 view .LVU261
.LBE556:
	.loc 1 677 15 view .LVU262
	movq	-112(%rbp), %rdi
.LBB557:
.LBI557:
	.loc 11 203 5 is_stmt 1 view .LVU263
.LVL74:
	.loc 11 203 5 is_stmt 0 view .LVU264
.LBE557:
.LBB558:
.LBI558:
	.loc 1 330 7 is_stmt 1 view .LVU265
.LBB559:
.LBI559:
	.loc 1 347 7 view .LVU266
.LBB560:
	.loc 1 350 2 is_stmt 0 view .LVU267
	testq	%rdi, %rdi
	je	.L35
.LVL75:
.LBB561:
.LBI561:
	.loc 4 469 7 is_stmt 1 view .LVU268
.LBB562:
.LBB563:
.LBI563:
	.loc 3 119 7 view .LVU269
.LBB564:
	.loc 3 128 19 is_stmt 0 view .LVU270
	call	_ZdlPv@PLT
.LVL76:
	.loc 3 128 19 view .LVU271
.LBE564:
.LBE563:
.LBE562:
.LBE561:
.LBE560:
.LBE559:
.LBB565:
.LBI565:
	.loc 1 125 14 is_stmt 1 view .LVU272
.LBB566:
.LBI566:
	.loc 2 153 7 view .LVU273
.LBB567:
.LBI567:
	.loc 3 89 7 view .LVU274
.L35:
	.loc 3 89 7 is_stmt 0 view .LVU275
.LBE567:
.LBE566:
.LBE565:
.LBE558:
.LBE555:
.LBE554:
.LBB568:
.LBI568:
	.loc 1 675 7 is_stmt 1 view .LVU276
.LBB569:
.LBB570:
.LBI570:
	.loc 1 273 7 view .LVU277
	.loc 1 273 7 is_stmt 0 view .LVU278
.LBE570:
	.loc 1 677 15 view .LVU279
	movq	-144(%rbp), %rdi
.LBB571:
.LBI571:
	.loc 11 203 5 is_stmt 1 view .LVU280
.LVL77:
	.loc 11 203 5 is_stmt 0 view .LVU281
.LBE571:
.LBB572:
.LBI572:
	.loc 1 330 7 is_stmt 1 view .LVU282
.LBB573:
.LBI573:
	.loc 1 347 7 view .LVU283
.LBB574:
	.loc 1 350 2 is_stmt 0 view .LVU284
	testq	%rdi, %rdi
	je	.L36
.LVL78:
.LBB575:
.LBI575:
	.loc 4 469 7 is_stmt 1 view .LVU285
.LBB576:
.LBB577:
.LBI577:
	.loc 3 119 7 view .LVU286
.LBB578:
	.loc 3 128 19 is_stmt 0 view .LVU287
	call	_ZdlPv@PLT
.LVL79:
.L36:
	.loc 3 128 19 view .LVU288
.LBE578:
.LBE577:
.LBE576:
.LBE575:
.LBE574:
.LBE573:
.LBB579:
.LBI579:
	.loc 1 125 14 is_stmt 1 view .LVU289
.LBB580:
.LBI580:
	.loc 2 153 7 view .LVU290
.LBB581:
.LBI581:
	.loc 3 89 7 view .LVU291
	.loc 3 89 7 is_stmt 0 view .LVU292
	movq	%r12, %rdi
.LEHB4:
	call	_Unwind_Resume@PLT
.LVL80:
.LEHE4:
.L66:
	.loc 3 89 7 view .LVU293
	vzeroupper
	jmp	.L33
.LBE581:
.LBE580:
.LBE579:
.LBE572:
.LBE569:
.LBE568:
	.cfi_endproc
.LFE1948:
	.section	.gcc_except_table
.LLSDAC1948:
	.byte	0xff
	.byte	0xff
	.byte	0x1
	.uleb128 .LLSDACSEC1948-.LLSDACSBC1948
.LLSDACSBC1948:
	.uleb128 .LEHB4-.LCOLDB7
	.uleb128 .LEHE4-.LEHB4
	.uleb128 0
	.uleb128 0
.LLSDACSEC1948:
	.section	.text.unlikely
	.section	.text.startup
	.size	main, .-main
	.section	.text.unlikely
	.size	main.cold, .-main.cold
.LCOLDE7:
	.section	.text.startup
.LHOTE7:
	.p2align 4
	.type	_GLOBAL__sub_I_main, @function
_GLOBAL__sub_I_main:
.LFB2503:
	.loc 7 35 1 is_stmt 1 view -0
	.cfi_startproc
	endbr64
.LVL81:
.LBB582:
.LBI582:
	.loc 7 35 1 view .LVU295
.LBE582:
	subq	$8, %rsp
	.cfi_def_cfa_offset 16
.LBB585:
.LBB583:
	.file 12 "/usr/include/c++/9/iostream"
	.loc 12 74 25 is_stmt 0 view .LVU296
	leaq	_ZStL8__ioinit(%rip), %rdi
	call	_ZNSt8ios_base4InitC1Ev@PLT
.LVL82:
	movq	_ZNSt8ios_base4InitD1Ev@GOTPCREL(%rip), %rdi
	leaq	__dso_handle(%rip), %rdx
	leaq	_ZStL8__ioinit(%rip), %rsi
.LBE583:
.LBE585:
	.loc 7 35 1 view .LVU297
	addq	$8, %rsp
	.cfi_def_cfa_offset 8
.LBB586:
.LBB584:
	.loc 12 74 25 view .LVU298
	jmp	__cxa_atexit@PLT
.LVL83:
.LBE584:
.LBE586:
	.cfi_endproc
.LFE2503:
	.size	_GLOBAL__sub_I_main, .-_GLOBAL__sub_I_main
	.section	.init_array,"aw"
	.align 8
	.quad	_GLOBAL__sub_I_main
	.local	_ZStL8__ioinit
	.comm	_ZStL8__ioinit,1,1
	.section	.rodata.cst8,"aM",@progbits,8
	.align 8
.LC1:
	.long	0
	.long	1072693248
	.align 8
.LC2:
	.long	0
	.long	1073741824
	.align 8
.LC4:
	.long	0
	.long	1076101120
	.align 8
.LC5:
	.long	0
	.long	1104006501
	.text
.Letext0:
	.section	.text.unlikely
.Letext_cold0:
	.file 13 "/usr/include/c++/9/cwchar"
	.file 14 "/usr/include/c++/9/new"
	.file 15 "/usr/include/c++/9/bits/exception_ptr.h"
	.file 16 "/usr/include/c++/9/type_traits"
	.file 17 "/usr/include/x86_64-linux-gnu/c++/9/bits/c++config.h"
	.file 18 "/usr/include/c++/9/bits/stl_pair.h"
	.file 19 "/usr/include/c++/9/debug/debug.h"
	.file 20 "/usr/include/c++/9/cstdint"
	.file 21 "/usr/include/c++/9/clocale"
	.file 22 "/usr/include/c++/9/cstdlib"
	.file 23 "/usr/include/c++/9/cstdio"
	.file 24 "/usr/include/c++/9/bits/basic_string.h"
	.file 25 "/usr/include/c++/9/system_error"
	.file 26 "/usr/include/c++/9/bits/ios_base.h"
	.file 27 "/usr/include/c++/9/cwctype"
	.file 28 "/usr/include/c++/9/bits/locale_facets.h"
	.file 29 "/usr/include/c++/9/iosfwd"
	.file 30 "/usr/include/c++/9/bits/std_abs.h"
	.file 31 "/usr/include/c++/9/bits/vector.tcc"
	.file 32 "/usr/include/c++/9/initializer_list"
	.file 33 "/usr/include/c++/9/bits/basic_ios.h"
	.file 34 "/usr/include/c++/9/bits/ostream.tcc"
	.file 35 "/usr/include/c++/9/bits/functexcept.h"
	.file 36 "/usr/include/c++/9/bits/ostream_insert.h"
	.file 37 "/usr/include/c++/9/bits/predefined_ops.h"
	.file 38 "/usr/include/c++/9/ext/numeric_traits.h"
	.file 39 "/usr/include/c++/9/ext/alloc_traits.h"
	.file 40 "/usr/include/c++/9/ext/type_traits.h"
	.file 41 "/usr/lib/gcc/x86_64-linux-gnu/9/include/stddef.h"
	.file 42 "<built-in>"
	.file 43 "/usr/include/x86_64-linux-gnu/bits/types/wint_t.h"
	.file 44 "/usr/include/x86_64-linux-gnu/bits/types/__mbstate_t.h"
	.file 45 "/usr/include/x86_64-linux-gnu/bits/types/mbstate_t.h"
	.file 46 "/usr/include/x86_64-linux-gnu/bits/types/__FILE.h"
	.file 47 "/usr/include/x86_64-linux-gnu/bits/types/struct_FILE.h"
	.file 48 "/usr/include/x86_64-linux-gnu/bits/types/FILE.h"
	.file 49 "/usr/include/wchar.h"
	.file 50 "/usr/include/x86_64-linux-gnu/bits/wchar2.h"
	.file 51 "/usr/include/x86_64-linux-gnu/bits/types/struct_tm.h"
	.file 52 "/usr/include/x86_64-linux-gnu/bits/types.h"
	.file 53 "/usr/include/x86_64-linux-gnu/bits/stdint-intn.h"
	.file 54 "/usr/include/x86_64-linux-gnu/bits/stdint-uintn.h"
	.file 55 "/usr/include/stdint.h"
	.file 56 "/usr/include/locale.h"
	.file 57 "/usr/include/time.h"
	.file 58 "/usr/include/x86_64-linux-gnu/c++/9/bits/atomic_word.h"
	.file 59 "/usr/include/x86_64-linux-gnu/bits/stdlib-float.h"
	.file 60 "/usr/include/x86_64-linux-gnu/bits/stdlib-bsearch.h"
	.file 61 "/usr/include/x86_64-linux-gnu/bits/stdlib.h"
	.file 62 "/usr/include/x86_64-linux-gnu/bits/types/__fpos_t.h"
	.file 63 "/usr/include/stdio.h"
	.file 64 "/usr/include/x86_64-linux-gnu/bits/sys_errlist.h"
	.file 65 "/usr/include/x86_64-linux-gnu/bits/stdio2.h"
	.file 66 "/usr/include/x86_64-linux-gnu/bits/stdio.h"
	.file 67 "/usr/include/errno.h"
	.file 68 "/usr/include/x86_64-linux-gnu/bits/wctype-wchar.h"
	.file 69 "/usr/include/wctype.h"
	.file 70 "/usr/include/c++/9/stdlib.h"
	.file 71 "/usr/lib/gcc/x86_64-linux-gnu/9/include/omp.h"
	.section	.data.rel.local.DW.ref.__gxx_personality_v0,"awG",@progbits,DW.ref.__gxx_personality_v0,comdat
	.align 8
	.type	DW.ref.__gxx_personality_v0, @object
	.size	DW.ref.__gxx_personality_v0, 8
DW.ref.__gxx_personality_v0:
	.quad	__gxx_personality_v0
	.hidden	__dso_handle
	.ident	"GCC: (Ubuntu 9.3.0-17ubuntu1~20.04) 9.3.0"
	.section	.note.GNU-stack,"",@progbits
	.section	.note.gnu.property,"a"
	.align 8
	.long	 1f - 0f
	.long	 4f - 1f
	.long	 5
0:
	.string	 "GNU"
1:
	.align 8
	.long	 0xc0000002
	.long	 3f - 2f
2:
	.long	 0x3
3:
	.align 8
4:
